(lp0
(S'Multijets'
p1
F1.077154323509133
F0.14865124340804337
tp2
a(S'MultijetsGammaFakes'
p3
F1.0061992662704355
F0.01697213372096884
tp4
a(S'Top'
p5
F1.2538068674332048
F0.3032875075653224
tp6
a(S'Wjets'
p7
F0.7387632709914271
F0.07433848283104616
tp8
a(S'Zjets'
p9
F0.8681410918129628
F0.028335691627454085
tp10
a.