(lp0
(S'Multijets'
p1
F1.618710031527082
F0.10423417652033473
tp2
a(S'MultijetsGammaFakes'
p3
F1.0706303010990237
F0.0741362029303555
tp4
a(S'Top'
p5
F0.6345968373648869
F0.18273912645125345
tp6
a(S'Wjets'
p7
F0.8987586658640578
F0.15039705438643636
tp8
a(S'Zjets'
p9
F0.8297721520020285
F0.09214232724569227
tp10
a.