(lp0
(S'Multijets'
p1
F0.8797940788535241
F0.22625510948254268
tp2
a(S'MultijetsGammaFakes'
p3
F1.025922273290486
F0.02076349616077222
tp4
a(S'Top'
p5
F1.057912474411643
F0.37639418691751136
tp6
a(S'Wjets'
p7
F0.8613880058850609
F0.10231909897642777
tp8
a(S'Zjets'
p9
F0.8960480910702728
F0.04107604386335839
tp10
a.