(lp0
(S'Multijets'
p1
F0.9424639519797773
F0.2262149514040135
tp2
a(S'MultijetsGammaFakes'
p3
F1.0258442222534636
F0.020767348945918696
tp4
a(S'Top'
p5
F1.0566279352557661
F0.37665110772061583
tp6
a(S'Wjets'
p7
F0.8609948038846849
F0.10234608412904023
tp8
a(S'Zjets'
p9
F0.8959775093847211
F0.04107628566427102
tp10
a.