(lp0
(S'alpha_JER'
p1
F0.0004679666471822941
F0.9935975467267921
tp2
a(S'alpha_JET_GroupedNP_1'
p3
F0.009112349503739736
F0.9953418681428956
tp4
a(S'alpha_JET_GroupedNP_2'
p5
F-0.0005146768770707411
F0.9937123824948375
tp6
a(S'alpha_JET_GroupedNP_3'
p7
F0.0031811035962370227
F0.9941226864165746
tp8
a(S'alpha_MET_SoftTrk_ResoPara'
p9
F-0.00031071643506219715
F0.9938858799121748
tp10
a(S'alpha_MET_SoftTrk_ResoPerp'
p11
F0.00016696350731493226
F0.993599747521047
tp12
a(S'alpha_MET_SoftTrk_Scale'
p13
F0.00021003206457148593
F0.9940096437467671
tp14
a(S'alpha_generatorTop'
p15
F-0.002898257737085963
F0.9913570870505564
tp16
a(S'alpha_generatorW'
p17
F-0.019931829039133042
F0.9909326581366014
tp18
a(S'alpha_generatorZ'
p19
F-0.012369497537243035
F0.9969182303812563
tp20
a(S'alpha_radiationTop'
p21
F0.00041850774505292065
F1.0014132867550376
tp22
a(S'alpha_FlatDiboson'
p23
F0.0
F1.0
tp24
a(S'alpha_Kappa'
p25
F0.0
F1.0
tp26
a(S'alpha_QCDError'
p27
F0.0
F1.0
tp28
a.