(lp0
(S'alpha_JER'
p1
F0.0007579321623580881
F0.992945724331828
tp2
a(S'alpha_JET_GroupedNP_1'
p3
F0.011686624016894243
F0.9941273725447473
tp4
a(S'alpha_JET_GroupedNP_2'
p5
F-9.570896677946195e-05
F0.9913141519951876
tp6
a(S'alpha_JET_GroupedNP_3'
p7
F0.0016987884676664677
F0.9916944208528111
tp8
a(S'alpha_MET_SoftTrk_ResoPara'
p9
F-0.0014975758709550036
F0.9925706800227725
tp10
a(S'alpha_MET_SoftTrk_ResoPerp'
p11
F0.0002625335028216824
F0.9925337164183206
tp12
a(S'alpha_MET_SoftTrk_Scale'
p13
F-4.5655792011878304e-05
F0.9921933795456228
tp14
a(S'alpha_generatorTop'
p15
F-0.006512493600524749
F0.9854478075345652
tp16
a(S'alpha_generatorW'
p17
F-0.0037953296847152984
F0.9958999526206891
tp18
a(S'alpha_generatorZ'
p19
F-0.005721241847554737
F0.9918166870554774
tp20
a(S'alpha_radiationTop'
p21
F-0.0028106291751628376
F0.991941263447472
tp22
a(S'alpha_FlatDiboson'
p23
F0.0
F1.0
tp24
a(S'alpha_Kappa'
p25
F0.0
F1.0
tp26
a(S'alpha_QCDError'
p27
F0.0
F1.0
tp28
a.