(lp0
(S'alpha_JER'
p1
F-0.007561472203377662
F0.9932064790753903
tp2
a(S'alpha_JET_GroupedNP_1'
p3
F0.0023638169195150383
F0.9941657824188668
tp4
a(S'alpha_JET_GroupedNP_2'
p5
F-0.00014132439267644514
F0.9919453915830836
tp6
a(S'alpha_JET_GroupedNP_3'
p7
F0.0010147756011713582
F0.9918269082174573
tp8
a(S'alpha_MET_SoftTrk_ResoPara'
p9
F-0.0016904120439527048
F0.992748966712039
tp10
a(S'alpha_MET_SoftTrk_ResoPerp'
p11
F0.0010518457065922249
F0.992745652196751
tp12
a(S'alpha_MET_SoftTrk_Scale'
p13
F0.0001587396801987495
F0.9925429289363281
tp14
a(S'alpha_generatorTop'
p15
F-0.0005152788896820581
F0.9873551126305165
tp16
a(S'alpha_generatorW'
p17
F-0.004391833907673615
F0.9970559351644397
tp18
a(S'alpha_generatorZ'
p19
F0.008600387988702884
F0.9939780741929285
tp20
a(S'alpha_radiationTop'
p21
F-0.002011905840038075
F0.995874685558332
tp22
a(S'alpha_FlatDiboson'
p23
F0.0
F1.0
tp24
a(S'alpha_Kappa'
p25
F0.0
F1.0
tp26
a(S'alpha_QCDError'
p27
F0.0
F1.0
tp28
a.