(lp0
(S'alpha_JER'
p1
F1.293085495124302e-05
F0.9931342081754293
tp2
a(S'alpha_JET_GroupedNP_1'
p3
F-0.00016207444141524974
F0.9916141151934807
tp4
a(S'alpha_JET_GroupedNP_2'
p5
F-0.00010139494571959062
F0.99197396353079
tp6
a(S'alpha_JET_GroupedNP_3'
p7
F-9.623272946512884e-06
F0.993562634564348
tp8
a(S'alpha_MET_SoftTrk_ResoPara'
p9
F3.640610087174423e-06
F0.9935214330347426
tp10
a(S'alpha_MET_SoftTrk_ResoPerp'
p11
F-3.6884322156538474e-06
F0.9929080271350674
tp12
a(S'alpha_MET_SoftTrk_Scale'
p13
F-1.4491205863720324e-05
F0.9933134622154802
tp14
a(S'alpha_generatorTop'
p15
F-6.241554135844041e-05
F0.994229229608389
tp16
a(S'alpha_generatorW'
p17
F-0.0010515180864274498
F0.9938626086349531
tp18
a(S'alpha_generatorZ'
p19
F-0.00014607656743770292
F0.9922326994833321
tp20
a(S'alpha_radiationTop'
p21
F-3.744974699415593e-05
F0.9893287909574933
tp22
a(S'alpha_FlatDiboson'
p23
F0.0
F1.0
tp24
a(S'alpha_Kappa'
p25
F0.0
F1.0
tp26
a(S'alpha_QCDError'
p27
F0.0
F1.0
tp28
a.