(lp0
(S'alpha_JER'
p1
F0.0037030823600829876
F0.9951093125245385
tp2
a(S'alpha_JET_GroupedNP_1'
p3
F-0.00876224744889953
F0.9956536679092418
tp4
a(S'alpha_JET_GroupedNP_2'
p5
F-0.011475494246390383
F0.9953248637762107
tp6
a(S'alpha_JET_GroupedNP_3'
p7
F-0.0038857515557957356
F0.9930725916966447
tp8
a(S'alpha_MET_SoftTrk_ResoPara'
p9
F0.001668091844604369
F0.9937799848373117
tp10
a(S'alpha_MET_SoftTrk_ResoPerp'
p11
F0.005196709041333847
F0.9942202951478869
tp12
a(S'alpha_MET_SoftTrk_Scale'
p13
F-0.00028898619658956903
F0.9939162000668365
tp14
a(S'alpha_generatorTop'
p15
F-0.0048164820473068914
F1.0002043647750134
tp16
a(S'alpha_generatorW'
p17
F0.0009784435516611012
F1.004857668100851
tp18
a(S'alpha_generatorZ'
p19
F-0.03173019190884485
F1.0091765090054623
tp20
a(S'alpha_radiationTop'
p21
F-0.0038730311223575953
F1.0137756285812098
tp22
a(S'alpha_FlatDiboson'
p23
F0.0
F1.0
tp24
a(S'alpha_Kappa'
p25
F0.0
F1.0
tp26
a(S'alpha_QCDError'
p27
F0.0
F1.0
tp28
a.