(lp0
(S'alpha_JER'
p1
F0.0016243420664672215
F0.9936393137665136
tp2
a(S'alpha_JET_GroupedNP_1'
p3
F-0.0022019906675811995
F0.9956293678306243
tp4
a(S'alpha_JET_GroupedNP_2'
p5
F0.0029083018018205564
F0.9937536936821623
tp6
a(S'alpha_JET_GroupedNP_3'
p7
F-0.003424229184539662
F0.9938529512821606
tp8
a(S'alpha_MET_SoftTrk_ResoPara'
p9
F-6.048645992873247e-05
F0.9940425940449997
tp10
a(S'alpha_MET_SoftTrk_ResoPerp'
p11
F-4.041099187990227e-05
F0.9936399262761468
tp12
a(S'alpha_MET_SoftTrk_Scale'
p13
F4.8580903584394264e-05
F0.9941602950911816
tp14
a(S'alpha_generatorTop'
p15
F-0.0027881106990355065
F0.9911144557445732
tp16
a(S'alpha_generatorW'
p17
F-0.015527079183906167
F0.9912333611677573
tp18
a(S'alpha_generatorZ'
p19
F-0.0035435847835554313
F0.99746769882712
tp20
a(S'alpha_radiationTop'
p21
F-0.002034923942418665
F1.0040794675786568
tp22
a(S'alpha_FlatDiboson'
p23
F0.0
F1.0
tp24
a(S'alpha_Kappa'
p25
F0.0
F1.0
tp26
a(S'alpha_QCDError'
p27
F0.0
F1.0
tp28
a.