(lp0
(S'alpha_JER'
p1
F-2.1404770430777376e-05
F0.992925379299908
tp2
a(S'alpha_JET_GroupedNP_1'
p3
F-0.00022336895380981048
F0.993109628830477
tp4
a(S'alpha_JET_GroupedNP_2'
p5
F1.009177762689717e-06
F0.9933898557828402
tp6
a(S'alpha_JET_GroupedNP_3'
p7
F-1.3833304602250962e-05
F0.9932122709809748
tp8
a(S'alpha_MET_SoftTrk_ResoPara'
p9
F3.260889727130234e-07
F0.9933658816984123
tp10
a(S'alpha_MET_SoftTrk_ResoPerp'
p11
F-7.527905943049973e-08
F0.99334220800448
tp12
a(S'alpha_MET_SoftTrk_Scale'
p13
F3.056559934933034e-06
F0.9934957916843632
tp14
a(S'alpha_generatorTop'
p15
F0.0009199541562532332
F0.9930334349261689
tp16
a(S'alpha_generatorW'
p17
F0.0005413719638083236
F0.9945657602323723
tp18
a(S'alpha_generatorZ'
p19
F5.648527651924695e-05
F0.9946557802551474
tp20
a(S'alpha_radiationTop'
p21
F2.729765486009228e-05
F0.9925818532281347
tp22
a(S'alpha_FlatDiboson'
p23
F0.0
F1.0
tp24
a(S'alpha_Kappa'
p25
F0.0
F1.0
tp26
a(S'alpha_QCDError'
p27
F0.0
F1.0
tp28
a.