(dp0
S'SR'
p1
(F1.2246947660493526
F221.0
F189.6162221034283
F21.647223883759278
tp2
sS'CRQ'
p3
(F-0.02
F2390.0
F2390.1457095923774
F48.9028784216257
tp4
sS'VRW'
p5
(F0.48153283622629117
F52.0
F48.09976834870598
F4.174401927668818
tp6
sS'CRW'
p7
(F-0.02
F174.0
F174.00021234681967
F13.189971421142358
tp8
sS'CRT'
p9
(F0.02
F51.0
F50.999687939043504
F7.1352693238693385
tp10
sS'VRT'
p11
(F-0.589500758863588
F11.0
F13.59720318579171
F2.5040164604939554
tp12
sS'VRQa'
p13
(F-0.6403580171760956
F375.0
F461.7768526143448
F133.81808958712213
tp14
sS'VRZ'
p15
(F0.2034751254401072
F31.0
F29.556935049310958
F4.521704545668212
tp16
sS'VRTb'
p17
(F0.02
F51.0
F50.999603733108884
F7.607152456398457
tp18
sS'CRY'
p19
(F-0.02
F1866.0
F1866.0027901011538
F43.19746904154249
tp20
sS'CRYQ'
p21
(F-0.02
F14415.0
F14415.024623714693
F120.06801474011753
tp22
sS'VRWa'
p23
(F0.3781530600434206
F151.0
F144.63351893906378
F11.825188735941449
tp24
sS'VRWb'
p25
(F-0.02
F174.0
F174.00021234681967
F14.188617211491074
tp26
sS'VRTa'
p27
(F-0.20355305529319875
F40.0
F41.85859317772662
F6.500745067103889
tp28
sS'VRZb'
p29
(F0.13089733480434657
F112.0
F109.64368304773951
F14.663910903448139
tp30
sS'VRZa'
p31
(F1.1398952507504665
F87.0
F72.94894425935317
F8.899725947851636
tp32
sS'VRQb'
p33
(F1.091987025316083
F1344.0
F1184.2023541877893
F142.2774569328615
tp34
s.