(dp0
S'SR'
p1
(F0.9081791898331467
F85.0
F73.06157703366164
F9.997551810385797
tp2
sS'CRQ'
p3
(F0.02
F553.0
F552.8432201295125
F23.524304831385898
tp4
sS'VRW'
p5
(F0.9169705707711929
F23.0
F18.52109193030723
F2.215985071033467
tp6
sS'CRW'
p7
(F-0.02
F121.0
F121.26534789682583
F11.019236762491706
tp8
sS'CRT'
p9
(F0.02
F28.0
F27.953903872728606
F5.29200200823908
tp10
sS'VRT'
p11
(F-0.3475694134200081
F3.0
F3.7274917232781988
F1.0067095916677755
tp12
sS'VRQa'
p13
(F-0.45983106125596795
F325.0
F377.258088234635
F111.99364691719494
tp14
sS'VRZ'
p15
(F-1.152586862047881
F7.0
F10.962497022356795
F1.1344899441119185
tp16
sS'VRTb'
p17
(F0.2857248790368829
F8.0
F7.039041993808054
F1.924549286314944
tp18
sS'CRY'
p19
(F0.02
F706.0
F705.8628638182787
F26.567819801232925
tp20
sS'CRYQ'
p21
(F-0.02
F4597.0
F4597.289678958397
F67.80620642420779
tp22
sS'VRWa'
p23
(F-0.02
F121.0
F121.25901331619404
F11.71580188083049
tp24
sS'VRWb'
p25
(F0.38917393030930614
F34.0
F31.245886146360174
F4.308168254828996
tp26
sS'VRTa'
p27
(F0.02
F28.0
F27.954772942645928
F5.60966874660046
tp28
sS'VRZb'
p29
(F-0.20455638604480086
F17.0
F18.04038403286164
F2.8859702012536754
tp30
sS'VRZa'
p31
(F0.8952138999052881
F50.0
F42.71037420152695
F4.843054674937042
tp32
sS'VRQb'
p33
(F0.6533401155736723
F254.0
F231.43838000851215
F31.03355232986135
tp34
s.