(dp0
S'SR'
p1
(F1.6295571659747812
F8.0
F4.194301820610052
F0.8081455022264933
tp2
sS'CRQ'
p3
(F-0.02
F674.0
F674.0007442691767
F25.965487206038635
tp4
sS'VRW'
p5
(F0.9106677520824379
F7.0
F4.702546469958258
F1.0307436731196569
tp6
sS'CRW'
p7
(F-0.02
F58.0
F58.08275176270379
F7.625811247721329
tp8
sS'CRT'
p9
(F0.02
F32.0
F31.862275216953996
F5.641260006976118
tp10
sS'VRT'
p11
(F-1.0420406325431515
F1.0
F2.883557256693833
F0.857426580643156
tp12
sS'VRQa'
p13
(F0.17212207474897948
F71.0
F64.14244060466831
F39.0293511777067
tp14
sS'VRZ'
p15
(F-1.0266245554891158
F0.0
F0.6280342700249759
F0.19069916359727224
tp16
sS'VRTb'
p17
(F-0.4425071145689493
F12.0
F13.954602284003162
F2.452824171755944
tp18
sS'CRY'
p19
(F0.02
F129.0
F128.95462116793632
F11.3548202611714
tp20
sS'CRYQ'
p21
(F-0.02
F1020.0
F1020.1893599134049
F31.943633239570293
tp22
sS'VRWa'
p23
(F0.9866954252764157
F9.0
F6.141697634541399
F1.292221227085629
tp24
sS'VRWb'
p25
(F-0.022139230771566806
F33.0
F33.16444372313201
F4.760595980782959
tp26
sS'VRTa'
p27
(F-0.5004494832419871
F3.0
F4.122219335220646
F1.1269645674607496
tp28
sS'VRZb'
p29
(F0.05656231637094065
F6.0
F5.842298955598355
F1.1606076962624774
tp30
sS'VRZa'
p31
(F-1.079281944308003
F0.0
F0.7494564769479435
F0.18841006326324444
tp32
sS'VRQb'
p33
(F1.1887655378269573
F76.0
F59.29885323915646
F11.75291629630128
tp34
s.