(dp0
S'SR'
p1
(F-0.02
F32.0
F32.010420853149846
F2.553994122583853
tp2
sS'CRQ'
p3
(F0.02
F2297.0
F2296.4212208779622
F47.98222427229184
tp4
sS'VRW'
p5
(F0.38324139099899396
F11.0
F9.678265752076681
F1.2967397430600882
tp6
sS'CRW'
p7
(F0.02
F267.0
F266.93928936446036
F16.338426945617783
tp8
sS'CRT'
p9
(F-0.02
F159.0
F159.08946504163976
F12.617794681595006
tp10
sS'VRT'
p11
(F-1.813992249353285
F1.0
F5.272327849951376
F0.80595379824371
tp12
sS'VRQa'
p13
(F-0.26716990831687465
F1090.0
F1220.0043242265758
F485.35667379318454
tp14
sS'VRZ'
p15
(F-0.05861416437633792
F4.0
F4.128740530500237
F1.0292388346624863
tp16
sS'VRTb'
p17
(F-0.02
F159.0
F159.11225511283345
F13.478922887088862
tp18
sS'CRY'
p19
(F-0.02
F843.0
F843.3343988440905
F29.043616360335058
tp20
sS'CRYQ'
p21
(F0.02
F7108.0
F7107.551119724549
F84.3242570524517
tp22
sS'VRWa'
p23
(F0.02
F267.0
F266.9494572204632
F18.6147057816019
tp24
sS'VRWb'
p25
(F0.02
F267.0
F266.9494572204632
F18.6147057816019
tp26
sS'VRTa'
p27
(F-0.02
F159.0
F159.11225511283345
F13.478922887088862
tp28
sS'VRZb'
p29
(F-1.494313478586687
F45.0
F60.146153174757075
F6.597692251395288
tp30
sS'VRZa'
p31
(F-1.494313478586687
F45.0
F60.146153174757075
F6.597692251395288
tp32
sS'VRQb'
p33
(F1.5081022620776394
F388.0
F324.7129635329877
F37.93920978665788
tp34
s.