(dp0
S'CRQ'
p1
(F0.02
F9145.0
F9144.655928333674
F95.64469979713044
tp2
sS'VRW'
p3
(F1.7343209342960852
F5.0
F2.0424754794522526
F0.47507870372795125
tp4
sS'CRW'
p5
(F-0.02
F133.0
F133.00250969316542
F11.533643679760488
tp6
sS'CRT'
p7
(F0.02
F62.0
F61.9972276411659
F7.876896634789027
tp8
sS'VRT'
p9
(F-1.1318281306949303
F0.0
F1.0250063805921599
F0.3384406450956742
tp10
sS'VRZ'
p11
(F-1.201250288081658
F0.0
F1.3180049481387939
F0.4634540060001206
tp12
sS'CRY'
p13
(F0.02
F1312.0
F1311.9992302823064
F36.22182027935174
tp14
sS'VRQc'
p15
(F-0.8687627725017194
F28.0
F36.82703206768411
F8.191641471406934
tp16
sS'CRYQ'
p17
(F0.02
F14300.0
F14299.981820566065
F119.58336008512183
tp18
sS'VRWa'
p19
(F-0.02
F133.0
F133.00251125764595
F12.73993190729182
tp20
sS'VRZca'
p21
(F1.5609053657046423
F265.0
F225.5616817605205
F20.365863651195628
tp22
sS'VRTa'
p23
(F0.02
F62.0
F61.99723593527881
F8.410657900451893
tp24
sS'VRZc'
p25
(F-0.8087022395547878
F18.0
F22.164815890440558
F2.213824528677049
tp26
sS'VRZa'
p27
(F-1.0014461607339442
F76.0
F88.3160015480398
F8.010569473605749
tp28
sS'SR'
p29
(F-1.0565420201630218
F5.0
F8.288562747073872
F1.3429718231521515
tp30
s.