(dp0
S'CRQ'
p1
(F0.02
F9145.0
F9144.655928333674
F95.64469979713044
tp2
sS'VRW'
p3
(F-1.0232917811331166
F0.0
F0.6333782872276441
F0.20140765549420453
tp4
sS'CRW'
p5
(F-0.02
F133.0
F133.00250969316542
F11.533643679760488
tp6
sS'CRT'
p7
(F0.02
F62.0
F61.9972276411659
F7.876896634789027
tp8
sS'VRT'
p9
(F-0.8631792443439071
F0.0
F0.18125619237279555
F0.10606655438079592
tp10
sS'VRZ'
p11
(F-0.5214708125889661
F1.0
F1.6957323863544438
F0.6487670904644262
tp12
sS'CRY'
p13
(F0.02
F1312.0
F1311.9992302823064
F36.22182027935174
tp14
sS'VRQc'
p15
(F-0.6847663866714762
F99.0
F131.28868404989421
F45.758069989666986
tp16
sS'CRYQ'
p17
(F0.02
F14300.0
F14299.981820566065
F119.58336008512183
tp18
sS'VRWa'
p19
(F-0.02
F133.0
F133.00251125764595
F12.73993190729182
tp20
sS'VRZca'
p21
(F1.5609053657046423
F265.0
F225.5616817605205
F20.365863651195628
tp22
sS'VRTa'
p23
(F0.02
F62.0
F61.99723593527881
F8.410657900451893
tp24
sS'VRZc'
p25
(F0.21402332964108817
F54.0
F52.13694331821988
F4.8587202555646085
tp26
sS'VRZa'
p27
(F-1.0014461607339442
F76.0
F88.3160015480398
F8.010569473605749
tp28
sS'SR'
p29
(F0.192389333620371
F13.0
F12.23326686687795
F1.7738990599995788
tp30
s.