(dp0
S'CRQ'
p1
(F0.02
F9145.0
F9144.655928333674
F95.64469979713044
tp2
sS'VRW'
p3
(F0.5223163114215601
F6.0
F4.749011240759461
F0.6232000925289515
tp4
sS'CRW'
p5
(F-0.02
F133.0
F133.00250969316542
F11.533643679760488
tp6
sS'CRT'
p7
(F0.02
F62.0
F61.9972276411659
F7.876896634789027
tp8
sS'VRT'
p9
(F-0.3327825781283333
F1.0
F1.4117929446191346
F0.6712738748762157
tp10
sS'VRZ'
p11
(F-1.154460147485655
F3.0
F6.386715449296397
F1.6139556763436316
tp12
sS'CRY'
p13
(F0.02
F1312.0
F1311.9992302823064
F36.22182027935174
tp14
sS'VRQc'
p15
(F-0.71787394407924
F172.0
F230.92476243641306
F80.68057840193417
tp16
sS'CRYQ'
p17
(F0.02
F14300.0
F14299.981820566065
F119.58336008512183
tp18
sS'VRWa'
p19
(F-0.02
F133.0
F133.00251125764595
F12.73993190729182
tp20
sS'VRZca'
p21
(F1.5609053657046423
F265.0
F225.5616817605205
F20.365863651195628
tp22
sS'VRTa'
p23
(F0.02
F62.0
F61.99723593527881
F8.410657900451893
tp24
sS'VRZc'
p25
(F0.02
F51.0
F50.91552829154659
F6.456168574354024
tp26
sS'VRZa'
p27
(F-1.0014461607339442
F76.0
F88.3160015480398
F8.010569473605749
tp28
sS'SR'
p29
(F0.9496082043503992
F58.0
F50.00265435607068
F4.567996401032826
tp30
s.