(dp0
S'SR'
p1
(F1.4280202302386704
F10.0
F6.056388122361353
F0.9943386165490037
tp2
sS'CRQ'
p3
(F0.02
F625.0
F624.9361960620334
F25.00352252803007
tp4
sS'VRW'
p5
(F-0.038253128050764085
F6.0
F6.098147284479247
F0.9314826876752799
tp6
sS'CRW'
p7
(F-0.02
F58.0
F58.027609367409376
F7.620975658049817
tp8
sS'CRT'
p9
(F0.02
F32.0
F31.871930491742784
F5.643514719173412
tp10
sS'VRT'
p11
(F-1.1216403691920185
F1.0
F3.005652447829137
F0.7379127494563034
tp12
sS'VRQa'
p13
(F0.032415987463967864
F180.0
F176.3820488776928
F110.82335617595973
tp14
sS'VRZ'
p15
(F-1.0137273038657337
F0.0
F0.7353350076896996
F0.3039147990857748
tp16
sS'VRTb'
p17
(F-0.20503740959338895
F18.0
F19.12436467766788
F3.3851100759470176
tp18
sS'CRY'
p19
(F0.02
F129.0
F128.98029406021948
F11.356662128162363
tp20
sS'CRYQ'
p21
(F-0.02
F1020.0
F1020.00747800571
F31.93938247461413
tp22
sS'VRWa'
p23
(F0.8897353094283225
F24.0
F19.316250141703506
F2.8246910569869463
tp24
sS'VRWb'
p25
(F-0.28086747516133553
F38.0
F40.39752783688341
F5.762003412815914
tp26
sS'VRTa'
p27
(F-0.6019869761721158
F8.0
F10.293042613967215
F2.1540805734262296
tp28
sS'VRZb'
p29
(F0.4660880942418887
F8.0
F6.632723712178747
F1.1828343352356487
tp30
sS'VRZa'
p31
(F-0.1328176799351752
F2.0
F2.190140954523752
F0.4504865729018617
tp32
sS'VRQb'
p33
(F0.8134639246275662
F61.0
F50.37602325169096
F10.960839939188862
tp34
s.