(dp0
S'SR'
p1
(F1.1074180128356483
F67.0
F55.92618793699023
F6.639234616934663
tp2
sS'CRQ'
p3
(F0.02
F553.0
F552.8432201295125
F23.524304831385898
tp4
sS'VRW'
p5
(F0.9487786548581744
F20.0
F15.858963100508435
F1.6529675630982366
tp6
sS'CRW'
p7
(F-0.02
F121.0
F121.26534789682583
F11.019236762491706
tp8
sS'CRT'
p9
(F0.02
F28.0
F27.953903872728606
F5.29200200823908
tp10
sS'VRT'
p11
(F-0.15277354581206062
F3.0
F3.3015142253425136
F0.9743316467667035
tp12
sS'VRQa'
p13
(F-0.3707884779592043
F252.0
F288.1159734546223
F95.93046000246783
tp14
sS'VRZ'
p15
(F-1.8047265276900093
F3.0
F8.21729116844871
F0.7371391444752464
tp16
sS'VRTb'
p17
(F0.2857248790368829
F8.0
F7.039041993808054
F1.924549286314944
tp18
sS'CRY'
p19
(F0.02
F706.0
F705.8628638182787
F26.567819801232925
tp20
sS'CRYQ'
p21
(F-0.02
F4597.0
F4597.289678958397
F67.80620642420779
tp22
sS'VRWa'
p23
(F-0.6947691055777385
F70.0
F78.01378571309478
F7.493957884958616
tp24
sS'VRWb'
p25
(F0.38917393030930614
F34.0
F31.245886146360174
F4.308168254828996
tp26
sS'VRTa'
p27
(F0.30149984010807207
F20.0
F18.24569502308554
F3.8962457316269563
tp28
sS'VRZb'
p29
(F-0.20455638604480086
F17.0
F18.04038403286164
F2.8859702012536754
tp30
sS'VRZa'
p31
(F-0.6135883250188475
F20.0
F23.2724397778799
F2.3929383323008735
tp32
sS'VRQb'
p33
(F0.6533401155736723
F254.0
F231.43838000851215
F31.03355232986135
tp34
s.