(dp0
S'SR'
p1
(F1.9038556516906309
F4.0
F1.2676640986625718
F0.3709212025469424
tp2
sS'CRQ'
p3
(F-0.02
F674.0
F674.0007442691767
F25.965487206038635
tp4
sS'VRW'
p5
(F1.7805832055823672
F4.0
F1.3941120584347053
F0.30963768151912
tp6
sS'CRW'
p7
(F-0.02
F58.0
F58.08275176270379
F7.625811247721329
tp8
sS'CRT'
p9
(F0.02
F32.0
F31.862275216953996
F5.641260006976118
tp10
sS'VRT'
p11
(F0.15033946053756977
F1.0
F0.8057133312339168
F0.44653343413541086
tp12
sS'VRQa'
p13
(F-0.16928030974094027
F15.0
F16.84819112994478
F10.141119400672261
tp14
sS'VRZ'
p15
(F-0.9073249737506213
F0.0
F0.1598314035188558
F0.07407592899712119
tp16
sS'VRTb'
p17
(F-0.4425071145689493
F12.0
F13.954602284003162
F2.452824171755944
tp18
sS'CRY'
p19
(F0.02
F129.0
F128.95462116793632
F11.3548202611714
tp20
sS'CRYQ'
p21
(F-0.02
F1020.0
F1020.1893599134049
F31.943633239570293
tp22
sS'VRWa'
p23
(F1.536456491608392
F4.0
F1.614392255896041
F0.3857685238985305
tp24
sS'VRWb'
p25
(F-0.022139230771566806
F33.0
F33.16444372313201
F4.760595980782959
tp26
sS'VRTa'
p27
(F0.06720161388013451
F1.0
F0.910757363554735
F0.4363346879860878
tp28
sS'VRZb'
p29
(F0.05656231637094065
F6.0
F5.842298955598355
F1.1606076962624774
tp30
sS'VRZa'
p31
(F-0.9092070656620385
F0.0
F0.170182065555359
F0.07795917485574567
tp32
sS'VRQb'
p33
(F1.1887655378269573
F76.0
F59.29885323915646
F11.75291629630128
tp34
s.