(dp0
S'SR'
p1
(F-0.47243992712671073
F13.0
F14.992112650890988
F1.805134904552181
tp2
sS'CRQ'
p3
(F0.02
F2297.0
F2296.4212208779622
F47.98222427229184
tp4
sS'VRW'
p5
(F-1.1144877298200913
F3.0
F5.827237412102852
F0.9941623183652314
tp6
sS'CRW'
p7
(F0.02
F267.0
F266.93928936446036
F16.338426945617783
tp8
sS'CRT'
p9
(F-0.02
F159.0
F159.08946504163976
F12.617794681595006
tp10
sS'VRT'
p11
(F-1.0708228997719504
F1.0
F2.797457174671564
F0.6088440609539476
tp12
sS'VRQa'
p13
(F-0.1741212176620993
F764.0
F831.037100553172
F383.9338193268408
tp14
sS'VRZ'
p15
(F-0.1972908558191157
F2.0
F2.292236724582255
F0.49671347801629095
tp16
sS'VRTb'
p17
(F-0.02
F159.0
F159.11225511283345
F13.478922887088862
tp18
sS'CRY'
p19
(F-0.02
F843.0
F843.3343988440905
F29.043616360335058
tp20
sS'CRYQ'
p21
(F0.02
F7108.0
F7107.551119724549
F84.3242570524517
tp22
sS'VRWa'
p23
(F-0.44638336565010783
F146.0
F153.37209025042176
F11.014273523660684
tp24
sS'VRWb'
p25
(F0.02
F267.0
F266.9494572204632
F18.6147057816019
tp26
sS'VRTa'
p27
(F-1.16479044350556
F73.0
F88.03301467439645
F8.931572351794438
tp28
sS'VRZb'
p29
(F-1.494313478586687
F45.0
F60.146153174757075
F6.597692251395288
tp30
sS'VRZa'
p31
(F-0.43032459734065454
F27.0
F30.18177804779307
F5.011382100948821
tp32
sS'VRQb'
p33
(F1.5081022620776394
F388.0
F324.7129635329877
F37.93920978665788
tp34
s.