(dp0
S'SR'
p1
(F0.6859980046705397
F300.0
F273.67127920245343
F34.667751298152304
tp2
sS'CRQ'
p3
(F-0.02
F2390.0
F2390.1457095923774
F48.9028784216257
tp4
sS'VRW'
p5
(F-0.14711207058022355
F58.0
F59.361355571394135
F5.215787150120334
tp6
sS'CRW'
p7
(F-0.02
F174.0
F174.00021234681967
F13.189971421142358
tp8
sS'CRT'
p9
(F0.02
F51.0
F50.999687939043504
F7.1352693238693385
tp10
sS'VRT'
p11
(F-0.6410837790581593
F14.0
F17.145123792912948
F2.723129459846235
tp12
sS'VRQa'
p13
(F-0.6718614408014979
F405.0
F497.4834942077622
F135.8544420835868
tp14
sS'VRZ'
p15
(F-0.4563590048884263
F39.0
F43.62137500800312
F7.726133570483058
tp16
sS'VRTb'
p17
(F0.02
F51.0
F50.999603733108884
F7.607152456398457
tp18
sS'CRY'
p19
(F-0.02
F1866.0
F1866.0027901011538
F43.19746904154249
tp20
sS'CRYQ'
p21
(F-0.02
F14415.0
F14415.024623714693
F120.06801474011753
tp22
sS'VRWa'
p23
(F-0.02
F174.0
F174.00021234681967
F14.188617211491074
tp24
sS'VRWb'
p25
(F-0.02
F174.0
F174.00021234681967
F14.188617211491074
tp26
sS'VRTa'
p27
(F0.02
F51.0
F50.999603733108884
F7.607152456398457
tp28
sS'VRZb'
p29
(F0.13089733480434657
F112.0
F109.64368304773951
F14.663910903448139
tp30
sS'VRZa'
p31
(F0.13089733480434657
F112.0
F109.64368304773951
F14.663910903448139
tp32
sS'VRQb'
p33
(F1.091987025316083
F1344.0
F1184.2023541877893
F142.2774569328615
tp34
s.