(dp0
S'CRQ'
p1
(F0.02
F9145.0
F9144.655928333674
F95.64469979713044
tp2
sS'VRW'
p3
(F-0.6966692254246417
F23.0
F27.084054542483525
F2.8064071280349885
tp4
sS'CRW'
p5
(F-0.02
F133.0
F133.00250969316542
F11.533643679760488
tp6
sS'CRT'
p7
(F0.02
F62.0
F61.9972276411659
F7.876896634789027
tp8
sS'VRT'
p9
(F1.7389329082172194
F13.0
F7.256724491890552
F1.7566866630406253
tp10
sS'VRZ'
p11
(F-1.807394665243616
F4.0
F10.445790455091618
F1.6426224171519939
tp12
sS'CRY'
p13
(F0.02
F1312.0
F1311.9992302823064
F36.22182027935174
tp14
sS'VRQc'
p15
(F-0.3772765444736442
F586.0
F669.3815138290308
F219.50658120449057
tp16
sS'CRYQ'
p17
(F0.02
F14300.0
F14299.981820566065
F119.58336008512183
tp18
sS'VRWa'
p19
(F-0.02
F133.0
F133.00251125764595
F12.73993190729182
tp20
sS'VRZca'
p21
(F1.5609053657046423
F265.0
F225.5616817605205
F20.365863651195628
tp22
sS'VRTa'
p23
(F0.02
F62.0
F61.99723593527881
F8.410657900451893
tp24
sS'VRZc'
p25
(F-0.6228478737207318
F28.0
F32.01650803108345
F3.195798515173058
tp26
sS'VRZa'
p27
(F-1.0014461607339442
F76.0
F88.3160015480398
F8.010569473605749
tp28
sS'SR'
p29
(F0.08631126208271511
F91.0
F89.96662103985376
F7.333667165146343
tp30
s.