(dp0
S'CRQ'
p1
(F0.02
F9145.0
F9144.655928333674
F95.64469979713044
tp2
sS'VRW'
p3
(F0.6164666663473983
F3.0
F1.9650375998540182
F0.4608069820673341
tp4
sS'CRW'
p5
(F-0.02
F133.0
F133.00250969316542
F11.533643679760488
tp6
sS'CRT'
p7
(F0.02
F62.0
F61.9972276411659
F7.876896634789027
tp8
sS'VRT'
p9
(F-1.0215835434542728
F0.0
F0.9061242553442963
F0.44069652795218356
tp10
sS'VRZ'
p11
(F-0.9405979596940737
F0.0
F0.46142939154594464
F0.2025527226861064
tp12
sS'CRY'
p13
(F0.02
F1312.0
F1311.9992302823064
F36.22182027935174
tp14
sS'VRQc'
p15
(F-2.0418459985260284
F10.0
F23.387063924262197
F4.489384674567887
tp16
sS'CRYQ'
p17
(F0.02
F14300.0
F14299.981820566065
F119.58336008512183
tp18
sS'VRWa'
p19
(F-0.02
F133.0
F133.00251125764595
F12.73993190729182
tp20
sS'VRZca'
p21
(F1.5609053657046423
F265.0
F225.5616817605205
F20.365863651195628
tp22
sS'VRTa'
p23
(F0.02
F62.0
F61.99723593527881
F8.410657900451893
tp24
sS'VRZc'
p25
(F-1.0227844846319103
F7.0
F10.566726147700258
F1.421518502432722
tp26
sS'VRZa'
p27
(F-1.0014461607339442
F76.0
F88.3160015480398
F8.010569473605749
tp28
sS'SR'
p29
(F0.08356393704592875
F6.0
F5.776402986236101
F0.8934467794527765
tp30
s.