(dp0
S'SR'
p1
(F0.950779210329983
F32.0
F26.695720840398316
F2.0246687510155787
tp2
sS'CRQ'
p3
(F0.02
F585.0
F584.8667871000207
F24.1927416708501
tp4
sS'VRW'
p5
(F1.2872260916660325
F14.0
F9.55854771851621
F1.3455920863877548
tp6
sS'CRW'
p7
(F-0.020325210957202768
F121.0
F121.31564890781769
F11.020644075354802
tp8
sS'CRT'
p9
(F0.02
F28.0
F27.98916761307542
F5.292734813877738
tp10
sS'VRT'
p11
(F-0.687792510567332
F1.0
F2.075214259541759
F0.8430855473923888
tp12
sS'VRQa'
p13
(F-1.0685927369226298
F74.0
F116.98756534719517
F38.76681812941782
tp14
sS'VRZ'
p15
(F0.6064464345203449
F5.0
F3.703618204536128
F0.5021799789148909
tp16
sS'VRTb'
p17
(F-1.0075905946977106
F1.0
F2.8290861614215497
F0.9039474761323063
tp18
sS'CRY'
p19
(F0.02
F706.0
F705.8871517788509
F26.568124731687906
tp20
sS'CRYQ'
p21
(F-0.02
F4597.0
F4597.4351957665385
F67.80827533817262
tp22
sS'VRWa'
p23
(F-0.03191680929475988
F24.0
F24.18271300359802
F3.0254090988720708
tp24
sS'VRWb'
p25
(F1.2654103185636687
F19.0
F13.760870859002855
F1.7020213229287333
tp26
sS'VRTa'
p27
(F-1.1837871568533942
F2.0
F5.546427440033574
F1.950923526613452
tp28
sS'VRZb'
p29
(F0.12188883797824118
F8.0
F7.625066995884332
F1.1296387206778264
tp30
sS'VRZa'
p31
(F-0.21824703965024114
F6.0
F6.573379618970482
F0.8463027437400338
tp32
sS'VRQb'
p33
(F0.6367170947829487
F325.0
F296.5249112089932
F41.30680799759771
tp34
s.