(dp0
S'SR'
p1
(F1.8102191817604047
F29.0
F19.947385389950544
F2.1568126374980334
tp2
sS'CRQ'
p3
(F0.02
F625.0
F624.9361960620334
F25.00352252803007
tp4
sS'VRW'
p5
(F0.6458352576362762
F19.0
F15.977908671427683
F2.3369714083703355
tp6
sS'CRW'
p7
(F-0.02
F58.0
F58.027609367409376
F7.620975658049817
tp8
sS'CRT'
p9
(F0.02
F32.0
F31.871930491742784
F5.643514719173412
tp10
sS'VRT'
p11
(F-1.0770517563590907
F4.0
F7.263272125646392
F1.5200673486831942
tp12
sS'VRQa'
p13
(F-0.05090329696558812
F407.0
F419.3550847012872
F241.86132393808793
tp14
sS'VRZ'
p15
(F-0.4452007828366276
F2.0
F2.726302919571555
F0.5338079734877145
tp16
sS'VRTb'
p17
(F-0.20503740959338895
F18.0
F19.12436467766788
F3.3851100759470176
tp18
sS'CRY'
p19
(F0.02
F129.0
F128.98029406021948
F11.356662128162363
tp20
sS'CRYQ'
p21
(F-0.02
F1020.0
F1020.00747800571
F31.93938247461413
tp22
sS'VRWa'
p23
(F-0.02
F58.0
F58.03548392984895
F8.070830100134467
tp24
sS'VRWb'
p25
(F-0.28086747516133553
F38.0
F40.39752783688341
F5.762003412815914
tp26
sS'VRTa'
p27
(F0.02
F32.0
F31.87526890040531
F5.929629254939862
tp28
sS'VRZb'
p29
(F0.4660880942418887
F8.0
F6.632723712178747
F1.1828343352356487
tp30
sS'VRZa'
p31
(F1.0882989222764123
F12.0
F8.338876582758761
F1.557736142659907
tp32
sS'VRQb'
p33
(F0.8134639246275662
F61.0
F50.37602325169096
F10.960839939188862
tp34
s.