(dp0
S'SR'
p1
(F1.6000860203853977
F52.0
F40.375873284605895
F3.4973645628834107
tp2
sS'CRQ'
p3
(F0.02
F585.0
F584.8667871000207
F24.1927416708501
tp4
sS'VRW'
p5
(F1.0763987454396335
F16.0
F11.946824226391588
F1.313699581320284
tp6
sS'CRW'
p7
(F-0.020325210957202768
F121.0
F121.31564890781769
F11.020644075354802
tp8
sS'CRT'
p9
(F0.02
F28.0
F27.98916761307542
F5.292734813877738
tp10
sS'VRT'
p11
(F-0.8614167369057208
F1.0
F2.4508843022604783
F0.855980680661106
tp12
sS'VRQa'
p13
(F-0.4585886294890911
F159.0
F189.22588794337037
F64.47723513503394
tp14
sS'VRZ'
p15
(F-0.28379863243606324
F5.0
F5.679647915664515
F0.6590426336500664
tp16
sS'VRTb'
p17
(F-1.0075905946977106
F1.0
F2.8290861614215497
F0.9039474761323063
tp18
sS'CRY'
p19
(F0.02
F706.0
F705.8871517788509
F26.568124731687906
tp20
sS'CRYQ'
p21
(F-0.02
F4597.0
F4597.4351957665385
F67.80827533817262
tp22
sS'VRWa'
p23
(F-0.1461275165014393
F43.0
F44.14518237775407
F4.247692348589442
tp24
sS'VRWb'
p25
(F1.2654103185636687
F19.0
F13.760870859002855
F1.7020213229287333
tp26
sS'VRTa'
p27
(F-0.8741231989556867
F7.0
F10.446092118210125
F2.3497146447488895
tp28
sS'VRZb'
p29
(F0.12188883797824118
F8.0
F7.625066995884332
F1.1296387206778264
tp30
sS'VRZa'
p31
(F-0.8725003702450989
F9.0
F12.326850420830255
F1.6297276784298613
tp32
sS'VRQb'
p33
(F0.6367170947829487
F325.0
F296.5249112089932
F41.30680799759771
tp34
s.