(dp0
S'Fitted_err_Top'
p1
(lp2
F0.8494195673148791
asS'Fitted_err_Multijets'
p3
(lp4
F0.547300857446291
asS'MC_exp_err_Wjets'
p5
(lp6
F0.348571545428725
asS'Fitted_events_GAMMAjets'
p7
(lp8
F0.0
asS'names'
p9
(lp10
S'SR_cuts'
p11
asS'TOTAL_MC_EXP_BKG_err'
p12
(lp13
F1.886217750631542
asS'Fitted_err_GAMMAjets'
p14
(lp15
F0.0
asS'TOTAL_FITTED_bkg_events'
p16
(lp17
F19.947385389950544
asS'MC_exp_events_Wjets'
p18
(lp19
F6.563492774963379
asS'Fitted_events_Top'
p20
(lp21
F2.2826162094948024
asS'Fitted_err_Diboson'
p22
(lp23
F0.8846145354841088
asS'MC_exp_events_Top'
p24
(lp25
F3.5983362197875977
asS'Fitted_events_Multijets'
p26
(lp27
F0.5487426790755702
asS'MC_exp_err_Top'
p28
(lp29
F0.7634340196705426
asS'Fitted_err_Zjets'
p30
(lp31
F1.4331184500641283
asS'MC_exp_events_Diboson'
p32
(lp33
F1.7452378273010254
asS'MC_exp_events_Zjets'
p34
(lp35
F11.406917572021484
asS'MC_exp_events_GAMMAjets'
p36
(lp37
F0.0
asS'TOTAL_FITTED_bkg_events_err'
p38
(lp39
F2.1568126374980334
asS'MC_exp_err_GAMMAjets'
p40
(lp41
F0.0
asS'nobs'
p42
(lp43
F29.0
asS'Fitted_err_Wjets'
p44
(lp45
F1.0265625714601059
asS'Fitted_events_Zjets'
p46
(lp47
F9.47118272845961
asS'MC_exp_events_Multijets'
p48
(lp49
F0.33899998664855957
asS'MC_exp_err_Zjets'
p50
(lp51
F1.1778122308953831
asS'Fitted_events_Wjets'
p52
(lp53
F5.89994444816964
asS'MC_exp_err_Diboson'
p54
(lp55
F0.8848984593090586
asS'TOTAL_MC_EXP_BKG_events'
p56
(lp57
F23.652984380722046
asS'Fitted_events_Diboson'
p58
(lp59
F1.744899324750922
asS'MC_exp_err_Multijets'
p60
(lp61
F0.33740384577748284
as.