(dp0
S'Fitted_err_Top'
p1
(lp2
F8.481963935646819
aF2.579340451387866
aF0.8330670677167095
aF178.92946071592627
aF8.209661772389559
aF0.6491531068423693
aF0.4180450378465768
aF1.5951164137547245
aF3.6638783505542576
aF2.5735485143254113
aF8.838951346630695
aF0.8595030572427071
aF4.882061521737975
aF39.670858821264375
aF3.186102644080493
asS'Fitted_err_Multijets'
p3
(lp4
F0.0
aF0.0
aF0.0
aF198.67769724850405
aF0.0
aF0.0
aF0.0
aF0.0
aF0.0
aF0.0
aF0.0
aF0.0
aF0.0
aF216.36492572602418
aF1.6348600817847254
asS'MC_exp_err_Wjets'
p5
(lp6
F1.9258779845419371
aF2.918284190974682
aF4.2923905025891536
aF56.82229880150442
aF19.77894441106329
aF0.0
aF0.7157845566359705
aF0.979396058384488
aF0.009516806528791099
aF2.918284190974682
aF1.9258779845419371
aF1.3759899240556235
aF3.247232771324323
aF6.133855577762662
aF1.868793005507525
asS'Fitted_events_GAMMAjets'
p7
(lp8
F0.0
aF0.0
aF1096.8535003180402
aF0.0
aF305.13910694194385
aF0.0
aF0.0
aF0.0
aF0.0
aF0.0
aF0.0
aF0.0
aF0.0
aF0.0
aF0.0
asS'names'
p9
(lp10
S'CRT_cuts'
p11
aS'CRW_cuts'
p12
aS'CRY_cuts'
p13
aS'CRQ_cuts'
p14
aS'CRYQ_cuts'
p15
aS'VRZ_cuts'
p16
aS'VRW_cuts'
p17
aS'VRT_cuts'
p18
aS'VRZa_cuts'
p19
aS'VRWa_cuts'
p20
aS'VRTa_cuts'
p21
aS'VRZc_cuts'
p22
aS'VRZca_cuts'
p23
aS'VRQc_cuts'
p24
aS'SR_cuts'
p25
asS'TOTAL_MC_EXP_BKG_err'
p26
(lp27
F3.2713353114580794
aF3.3483567469227555
aF19.173356259751888
aF131.99394796458049
aF24.51220447087755
aF1.8200522669272965
aF1.2844099910154276
aF1.989059248809243
aF8.452528309071646
aF5.585701640149929
aF3.3991152200886683
aF3.3768035133789396
aF22.459460195087445
aF166.03144783999923
aF6.826731850695432
asS'Fitted_err_GAMMAjets'
p28
(lp29
F0.0
aF0.0
aF36.686194331867
aF0.0
aF13.344814851369597
aF0.0
aF0.0
aF0.0
aF0.0
aF0.0
aF0.0
aF0.0
aF0.0
aF0.0
aF0.0
asS'TOTAL_FITTED_bkg_events'
p30
(lp31
F61.9972276411659
aF133.00250969316542
aF1311.9992302823064
aF9144.655928333674
aF14299.981820566065
aF10.445790455091618
aF27.084054542483525
aF7.256724491890552
aF88.3160015480398
aF133.00251125764595
aF61.99723593527881
aF32.01650803108345
aF225.5616817605205
aF669.3815138290308
aF89.96662103985376
asS'MC_exp_events_Wjets'
p32
(lp33
F16.00311851501465
aF138.91357421875
aF5.167868614196777
aF519.6614990234375
aF54.87229537963867
aF0.0
aF29.538768768310547
aF3.6929714679718018
aF0.01789211854338646
aF138.91357421875
aF16.00311851501465
aF12.969635009765625
aF84.93751525878906
aF164.67005920410156
aF39.506935119628906
asS'Fitted_events_Top'
p34
(lp35
F47.3864634958893
aF13.179959928459935
aF3.6084114925744513
aF796.5626674494641
aF38.56151710234953
aF2.215871611466777
aF1.7325804127585158
aF4.037184484095695
aF10.857162210219462
aF13.17996008349303
aF47.386469835345004
aF3.548944666452417
aF21.140551033536475
aF194.99786052149668
aF14.45943592401012
asS'Fitted_err_Diboson'
p36
(lp37
F0.35984374564364313
aF1.0244948251971846
aF0.05523436138787861
aF3.325969371774666
aF0.7482678384846204
aF0.8146677025498879
aF0.970831827685005
aF0.2105283149202898
aF4.646825475783979
aF4.586134548463086
aF0.9908458633111283
aF1.7923522290857212
aF7.124373195810876
aF12.774233758216402
aF4.759947611431234
asS'MC_exp_events_Top'
p38
(lp39
F56.8682975769043
aF15.816727638244629
aF4.330883979797363
aF955.9798583984375
aF46.27639389038086
aF2.659778118133545
aF2.079094171524048
aF4.844473838806152
aF13.031888961791992
aF15.816727638244629
aF56.8682975769043
aF4.259538173675537
aF25.37229347229004
aF234.02401733398438
aF17.35233497619629
asS'Fitted_events_Multijets'
p40
(lp41
F0.0
aF0.0
aF0.0
aF7631.177846628522
aF0.0
aF0.0
aF0.0
aF0.0
aF0.0
aF0.0
aF0.0
aF0.0
aF0.0
aF217.47254794910197
aF1.6429794785633536
asS'MC_exp_err_Top'
p42
(lp43
F1.9488163125352869
aF0.7535092884683445
aF0.6293460940221861
aF114.030256258753
aF4.4099782917836485
aF0.6263923219041004
aF0.2824762545885378
aF1.652084308257676
aF3.6724283500363177
aF0.7535092884683445
aF1.9488163125352869
aF0.6839558036694637
aF3.482763350504789
aF19.069751978513914
aF1.834915032075861
asS'Fitted_err_Zjets'
p44
(lp45
F0.2461395091478294
aF0.1759314055012642
aF1.4247110118302904
aF16.88027983307963
aF7.790861115928946
aF1.201559305423946
aF0.10816851281278154
aF0.011113240197958006
aF5.427000396743793
aF0.18527182884474633
aF0.24621739849134214
aF1.6911191138199
aF17.2086670468356
aF10.930229158812352
aF2.825562177127592
asS'MC_exp_events_Diboson'
p46
(lp47
F1.8463932275772095
aF8.940581321716309
aF0.5941720008850098
aF47.70083999633789
aF5.496519565582275
aF1.444242000579834
aF1.7862725257873535
aF0.2768021821975708
aF9.2428560256958
aF8.940581321716309
aF1.8463932275772095
aF3.4127707481384277
aF13.92098331451416
aF24.808250427246094
aF9.320389747619629
asS'MC_exp_events_Zjets'
p48
(lp49
F0.12860345840454102
aF1.207002878189087
aF0.6908139586448669
aF316.5199279785156
aF18.623363494873047
aF8.321026802062988
aF0.241065114736557
aF0.02646428532898426
aF83.63227081298828
aF1.207002878189087
aF0.12860345840454102
aF18.1422119140625
aF151.19924926757812
aF124.8727798461914
aF40.82217025756836
asS'MC_exp_events_GAMMAjets'
p50
(lp51
F0.0
aF0.0
aF1345.0137939453125
aF0.0
aF374.1768493652344
aF0.0
aF0.0
aF0.0
aF0.0
aF0.0
aF0.0
aF0.0
aF0.0
aF0.0
aF0.0
asS'TOTAL_FITTED_bkg_events_err'
p52
(lp53
F7.876896634789027
aF11.533643679760488
aF36.22182027935174
aF95.64469979713044
aF119.58336008512183
aF1.6426224171519939
aF2.8064071280349885
aF1.7566866630406253
aF8.010569473605749
aF12.73993190729182
aF8.410657900451893
aF3.195798515173058
aF20.365863651195628
aF219.50658120449057
aF7.333667165146343
asS'MC_exp_err_GAMMAjets'
p54
(lp55
F0.0
aF0.0
aF16.07074217590679
aF0.0
aF9.14320038291552
aF0.0
aF0.0
aF0.0
aF0.0
aF0.0
aF0.0
aF0.0
aF0.0
aF0.0
aF0.0
asS'nobs'
p56
(lp57
F62.0
aF133.0
aF1312.0
aF9145.0
aF14300.0
aF4.0
aF23.0
aF13.0
aF76.0
aF133.0
aF62.0
aF28.0
aF265.0
aF586.0
aF91.0
asS'Fitted_err_Wjets'
p58
(lp59
F2.241550874268908
aF12.21991681293015
aF3.3430054134380525
aF69.42438535530606
aF15.613212633022066
aF0.0
aF2.7132299500890507
aF0.8814579609834604
aF0.007902216368455341
aF12.540028886204153
aF2.2301437467246052
aF1.6944073926816126
aF7.86221479725001
aF16.178668090335414
aF4.020151284538825
asS'Fitted_events_Zjets'
p60
(lp61
F0.10488979581979507
aF0.9842912516752046
aF0.563434928102221
aF258.1227611120987
aF15.187789549908288
aF6.785681040073409
aF0.196592231375688
aF0.02158102106978983
aF68.20190396487709
aF0.9842912632532155
aF0.1048898098521614
aF14.794894380199253
aF123.30339445169747
aF101.832388205076
aF33.29006558085293
asS'MC_exp_events_Multijets'
p62
(lp63
F0.0
aF0.0
aF0.0
aF5773.3857421875
aF0.0
aF0.0
aF0.0
aF0.0
aF0.0
aF0.0
aF0.0
aF0.0
aF0.0
aF164.5293731689453
aF1.2430000305175781
asS'MC_exp_err_Zjets'
p64
(lp65
F0.3035531303447674
aF0.21091716949956188
aF1.7570527237852107
aF17.681891018219382
aF9.60331091734542
aF1.4390174782228553
aF0.13333770042778303
aF0.01363277602588638
aF5.980809081350204
aF0.22261484214792215
aF0.3036479452874072
aF1.9882537188418052
aF20.630038548413868
aF12.53331296855899
aF3.1140112030691993
asS'Fitted_events_Wjets'
p66
(lp67
F12.659527836946584
aF109.89783179134777
aF4.090254006200803
aF411.0923316967334
aF43.418483399794496
aF0.0
aF23.368659576976455
aF2.921160375860205
aF0.014150648243767631
aF109.89783308405283
aF12.659529530563496
aF10.259922268338377
aF67.1968811501856
aF130.2710318348905
aF31.253895691441045
asS'MC_exp_err_Diboson'
p68
(lp69
F0.3622640766070345
aF1.0313580347971991
aF0.05562599845010424
aF3.348744453814496
aF0.7534057310307493
aF0.8158496768820293
aF0.9719113146626446
aF0.21131601385797005
aF4.647170689139252
aF4.5877225274090385
aF0.9917294232353366
aF1.793500599026282
aF7.126657511593176
aF12.779538261805872
aF4.761357420973322
asS'TOTAL_MC_EXP_BKG_events'
p70
(lp71
F74.8464127779007
aF164.87788605690002
aF1556.148744046688
aF7613.2478675842285
aF13991.72374200821
aF12.425046920776367
aF33.645200580358505
aF8.84071177430451
aF105.92490791901946
aF164.87788605690002
aF74.8464127779007
aF38.78415584564209
aF275.4300413131714
aF712.9044799804688
aF108.24483013153076
asS'Fitted_events_Diboson'
p72
(lp73
F1.846346512510223
aF8.940426721682526
aF0.5941708180087414
aF47.70032144685546
aF5.496422422776903
aF1.4442378035514336
aF1.7862223213728643
aF0.2767986108648614
aF9.242784724699474
aF8.940426826846883
aF1.846346759518146
aF3.4127467160933986
aF13.920855125100939
aF24.807685318465765
aF9.32024436498632
asS'MC_exp_err_Multijets'
p74
(lp75
F0.0
aF0.0
aF0.0
aF0.5773385742186292
aF0.0
aF0.0
aF0.0
aF0.0
aF0.0
aF0.0
aF0.0
aF0.0
aF0.0
aF163.63534397916808
aF1.2364338573431692
as.