(dp0
S'Fitted_err_Top'
p1
(lp2
F6.102199641114504
aF1.635759789938528
aF0.22667460563156958
aF17.805887671776652
aF1.2428835485931817
aF0.16454112093387196
aF0.20416080996796215
aF0.7093846461696769
aF0.24257135434421007
aF0.7776759556270391
aF2.1531244396896394
aF0.5358998504343055
aF1.0452775923396258
aF3.5292111765813217
aF9.12167116242769
aF3.8499810893661137
aF0.3119890005184208
asS'Fitted_err_Multijets'
p3
(lp4
F0.0
aF0.0
aF0.0
aF31.157331006000376
aF0.0
aF0.0
aF0.0
aF0.0
aF0.0
aF0.0
aF0.0
aF0.0
aF0.0
aF0.0
aF110.68123267441858
aF6.75266724910776
aF0.3653608400712739
asS'MC_exp_err_Wjets'
p5
(lp6
F0.540661925389729
aF1.1769936220351955
aF0.32193127629981444
aF6.610114199392708
aF2.7918252510357298
aF0.0
aF0.3898432237979999
aF0.1369536497696818
aF0.0
aF0.8487751465951962
aF0.40956248714087184
aF0.0
aF1.3281128306961598
aF0.5142965817837828
aF1.4097209296827897
aF5.469677447324454
aF0.6112226236602902
asS'Fitted_events_GAMMAjets'
p7
(lp8
F0.0
aF0.0
aF113.42933073204036
aF0.0
aF21.608015553172713
aF0.0
aF0.0
aF0.0
aF0.0
aF0.0
aF0.0
aF0.0
aF0.0
aF0.0
aF0.0
aF0.0
aF0.0
asS'names'
p9
(lp10
S'CRT_cuts'
p11
aS'CRW_cuts'
p12
aS'CRY_cuts'
p13
aS'CRQ_cuts'
p14
aS'CRYQ_cuts'
p15
aS'VRZ_cuts'
p16
aS'VRW_cuts'
p17
aS'VRT_cuts'
p18
aS'VRZa_cuts'
p19
aS'VRWa_cuts'
p20
aS'VRTa_cuts'
p21
aS'VRZb_cuts'
p22
aS'VRWb_cuts'
p23
aS'VRTb_cuts'
p24
aS'VRQa_cuts'
p25
aS'VRQb_cuts'
p26
aS'SR_cuts'
p27
asS'TOTAL_MC_EXP_BKG_err'
p28
(lp29
F2.313298440685972
aF1.9994663726973758
aF6.205044747118516
aF13.801583203304627
aF56.98863505180952
aF0.3905736885952242
aF0.582224205113557
aF0.8007146036842393
aF0.5265720809910815
aF1.7543493706007551
aF1.9502555263059407
aF1.294735326697708
aF2.1860106206538488
aF1.5228664126980762
aF68.47883881749057
aF10.636470657304798
aF1.0145449613047535
asS'Fitted_err_GAMMAjets'
p30
(lp31
F0.0
aF0.0
aF11.45613438755278
aF0.0
aF3.416428017167766
aF0.0
aF0.0
aF0.0
aF0.0
aF0.0
aF0.0
aF0.0
aF0.0
aF0.0
aF0.0
aF0.0
aF0.0
asS'TOTAL_FITTED_bkg_events'
p32
(lp33
F31.871930491742784
aF58.027609367409376
aF128.98029406021948
aF624.9361960620334
aF1020.00747800571
aF0.7353350076896996
aF6.098147284479247
aF3.005652447829137
aF2.190140954523752
aF19.316250141703506
aF10.293042613967215
aF6.632723712178747
aF40.39752783688341
aF19.12436467766788
aF176.3820488776928
aF50.37602325169096
aF6.056388122361353
asS'MC_exp_events_Wjets'
p34
(lp35
F10.177908897399902
aF54.55619812011719
aF0.37901371717453003
aF38.08667755126953
aF3.9797754287719727
aF0.0
aF5.392889976501465
aF1.0622026920318604
aF0.0
aF17.2725772857666
aF3.452147960662842
aF0.0
aF38.40317916870117
aF7.0544114112854
aF21.751821517944336
aF17.286785125732422
aF1.7616140842437744
asS'Fitted_events_Top'
p36
(lp37
F21.90039999452579
aF4.438984242866381
aF0.4376689110001554
aF59.979978598623134
aF3.8393310254136113
aF0.011679793184009551
aF0.6294416361581849
aF1.996674760895642
aF0.03127281034463232
aF1.7022998976918216
aF6.9108221652634985
aF0.6007506311741801
aF2.8388849627590944
aF12.130566136370879
aF31.061557289249247
aF10.853282948349854
aF0.5500000824164258
asS'Fitted_err_Diboson'
p38
(lp39
F0.3339756461660167
aF0.58855378071254
aF0.0
aF0.6879757554375395
aF0.06765574739686418
aF0.08371373800570686
aF0.35044371201455343
aF0.02481914493609477
aF0.22067655823487392
aF1.0920090715308959
aF0.33709512498633853
aF0.4221279916894032
aF1.3937740046403733
aF0.3610865122804139
aF2.144552557478266
aF1.696148013265727
aF0.35716921799365353
asS'MC_exp_events_Top'
p40
(lp41
F34.51395797729492
aF6.996321678161621
aF0.6896622776985168
aF94.53470611572266
aF6.057939529418945
aF0.01823374442756176
aF0.9927588701248169
aF3.1463308334350586
aF0.049030840396881104
aF2.682429313659668
aF10.890681266784668
aF0.9452282190322876
aF4.476304531097412
aF19.115299224853516
aF48.949100494384766
aF17.11355972290039
aF0.8663066625595093
asS'Fitted_events_Multijets'
p42
(lp43
F0.0
aF0.0
aF0.0
aF506.00967546436226
aF0.0
aF0.0
aF0.0
aF0.0
aF0.0
aF0.0
aF0.0
aF0.0
aF0.0
aF0.0
aF111.02858716162798
aF6.767824702899668
aF0.3658284607572665
asS'MC_exp_err_Top'
p44
(lp45
F1.894369111842695
aF1.3225189132056179
aF0.3205954271917488
aF5.992822377297254
aF1.1206875137456398
aF0.26047343364374576
aF0.16756431201688776
aF0.7131833161426855
aF0.3832571264328217
aF0.868365901678971
aF1.7142971278191552
aF0.7983639740120398
aF0.8783174159458085
aF1.0703440481448057
aF3.608293819973302
aF3.568764276414386
aF0.3947374674472442
asS'Fitted_err_Zjets'
p46
(lp47
F0.0492484061973224
aF0.39021521794699005
aF0.08766328900312599
aF6.904855108729279
aF0.7884024736511465
aF0.23778070950270724
aF0.021319443550773493
aF0.00762155092110106
aF0.29369463295431536
aF0.19615255302646742
aF0.02290320001699034
aF0.9246719242256274
aF0.2976843295369518
aF0.03085323245790791
aF1.5847012275700825
aF5.763813668852802
aF0.4997353049067951
asS'MC_exp_events_Diboson'
p48
(lp49
F0.7324029207229614
aF4.095770835876465
aF0.0
aF6.232929229736328
aF0.16091717779636383
aF0.1507655829191208
aF0.5810225605964661
aF0.04818582534790039
aF0.4211047887802124
aF1.9408985376358032
aF0.2415357232093811
aF0.8069453239440918
aF2.716785430908203
aF0.5923863649368286
aF4.2020792961120605
aF3.3111562728881836
aF0.6419176459312439
asS'MC_exp_events_Zjets'
p50
(lp51
F0.11508643627166748
aF0.5541403889656067
aF0.04956693947315216
aF22.230735778808594
aF1.0260542631149292
aF0.6925747990608215
aF0.04914341866970062
aF0.007562760263681412
aF2.093308925628662
aF0.17393308877944946
aF0.05039987340569496
aF6.292520523071289
aF0.3872608244419098
aF0.07135245203971863
aF12.71556282043457
aF16.727231979370117
aF3.513909101486206
asS'MC_exp_events_GAMMAjets'
p52
(lp53
F0.0
aF0.0
aF136.643798828125
aF0.0
aF26.08466911315918
aF0.0
aF0.0
aF0.0
aF0.0
aF0.0
aF0.0
aF0.0
aF0.0
aF0.0
aF0.0
aF0.0
aF0.0
asS'TOTAL_FITTED_bkg_events_err'
p54
(lp55
F5.643514719173412
aF7.620975658049817
aF11.356662128162363
aF25.00352252803007
aF31.93938247461413
aF0.3039147990857748
aF0.9314826876752799
aF0.7379127494563034
aF0.4504865729018617
aF2.8246910569869463
aF2.1540805734262296
aF1.1828343352356487
aF5.762003412815914
aF3.3851100759470176
aF110.82335617595973
aF10.960839939188862
aF0.9943386165490037
asS'MC_exp_err_GAMMAjets'
p56
(lp57
F0.0
aF0.0
aF5.580059259600588
aF0.0
aF2.8488199186334455
aF0.0
aF0.0
aF0.0
aF0.0
aF0.0
aF0.0
aF0.0
aF0.0
aF0.0
aF0.0
aF0.0
aF0.0
asS'nobs'
p58
(lp59
F32.0
aF58.0
aF129.0
aF625.0
aF1020.0
aF0.0
aF6.0
aF1.0
aF2.0
aF24.0
aF8.0
aF8.0
aF38.0
aF18.0
aF180.0
aF61.0
aF10.0
asS'Fitted_err_Wjets'
p60
(lp61
F1.6265316812933523
aF8.10838524704421
aF0.2954815110419509
aF8.420372848503073
aF2.5837718222099944
aF0.0
aF0.8894941924925717
aF0.20229330274717888
aF0.0
aF2.7157466153785714
aF0.646198795363062
aF0.0
aF5.862740220814704
aF1.1425571471971439
aF3.556568014124376
aF5.633141960062001
aF0.6165334760346783
asS'Fitted_events_Zjets'
p62
(lp63
F0.09505047981608059
aF0.4630839071810559
aF0.04194617702499009
aF18.51426568767521
aF0.8579791113123147
aF0.5726459109189453
aF0.04060478986847646
aF0.006195993343687563
aF1.7382196839127397
aF0.14608141427863486
aF0.041599618771853926
aF5.225585532989275
aF0.3238819835698991
aF0.05892713900215421
aF10.545089624417288
aF13.927247214891626
aF2.9181606117004626
asS'MC_exp_events_Multijets'
p64
(lp65
F0.0
aF0.0
aF0.0
aF312.5679931640625
aF0.0
aF0.0
aF0.0
aF0.0
aF0.0
aF0.0
aF0.0
aF0.0
aF0.0
aF0.0
aF68.59078216552734
aF4.180998802185059
aF0.22599999606609344
asS'MC_exp_err_Zjets'
p66
(lp67
F0.057916760151925595
aF0.46539687804107915
aF0.10528044162520585
aF7.943583387273958
aF0.9427717393111056
aF0.275208968099191
aF0.025082718162213566
aF0.009269228047502862
aF0.2673676816374187
aF0.2350632682707903
aF0.027064650866123526
aF0.8694350036078673
aF0.355467052459238
aF0.03630969656035084
aF1.296371916501526
aF6.6880733400170875
aF0.4600317264820705
asS'Fitted_events_Wjets'
p68
(lp69
F9.145380411501364
aF49.027349083103246
aF0.3394755727200229
aF34.203771335344015
aF3.5609860869243373
aF0.0
aF4.845996123391973
aF0.9545958682419067
aF0.0
aF15.523317208150953
aF3.101095030125796
aF0.0
aF34.51753712682598
aF6.341739715552016
aF19.543893483931097
aF15.514472703221529
aF1.5807032508253032
asS'MC_exp_err_Diboson'
p70
(lp71
F0.3366495749906443
aF0.5926349597510558
aF0.0
aF0.6929358576146235
aF0.06845761707840542
aF0.08367093321809776
aF0.35055642009752197
aF0.02481914493609477
aF0.22101757134833924
aF1.0916723760599547
aF0.3407579399174949
aF0.4226351693014775
aF1.3940401306804493
aF0.36152846566132923
aF2.144739852510673
aF1.695599821516197
aF0.35774652627797865
asS'TOTAL_MC_EXP_BKG_events'
p72
(lp73
F45.53935623168945
aF66.20243102312088
aF151.516447737813
aF473.6530418395996
aF963.2597949653864
aF0.8615741264075041
aF7.015814825892448
aF4.264282111078501
aF2.5634445548057556
aF22.069838225841522
aF14.634764824062586
aF8.044694066047668
aF45.9835299551487
aF26.833449453115463
aF156.20934629440308
aF58.61973190307617
aF7.009747490286827
asS'Fitted_events_Diboson'
p74
(lp75
F0.7310996058995463
aF4.0981921342586904
aF0.0
aF6.228504976028868
aF0.16073000529759834
aF0.1510093035867447
aF0.5821047350606138
aF0.04818582534790039
aF0.42064846026638
aF1.9445516215820973
aF0.23952579980606586
aF0.806387548015292
aF2.7172237637284375
aF0.5931316867428296
aF4.202921318467169
aF3.313195682328284
aF0.6416957166618956
asS'MC_exp_err_Multijets'
p76
(lp77
F0.0
aF0.0
aF0.0
aF4.862618682265998
aF0.0
aF0.0
aF0.0
aF0.0
aF0.0
aF0.0
aF0.0
aF0.0
aF0.0
aF0.0
aF68.23339388095792
aF4.1629381257346285
aF0.22524146910155876
as.