(dp0
S'Fitted_err_Top'
p1
(lp2
F3.186102644080493
asS'Fitted_err_Multijets'
p3
(lp4
F1.6348600817847254
asS'MC_exp_err_Wjets'
p5
(lp6
F1.868793005507525
asS'Fitted_events_GAMMAjets'
p7
(lp8
F0.0
asS'names'
p9
(lp10
S'SR_cuts'
p11
asS'TOTAL_MC_EXP_BKG_err'
p12
(lp13
F6.826731850695432
asS'Fitted_err_GAMMAjets'
p14
(lp15
F0.0
asS'TOTAL_FITTED_bkg_events'
p16
(lp17
F89.96662103985376
asS'MC_exp_events_Wjets'
p18
(lp19
F39.506935119628906
asS'Fitted_events_Top'
p20
(lp21
F14.45943592401012
asS'Fitted_err_Diboson'
p22
(lp23
F4.759947611431234
asS'MC_exp_events_Top'
p24
(lp25
F17.35233497619629
asS'Fitted_events_Multijets'
p26
(lp27
F1.6429794785633536
asS'MC_exp_err_Top'
p28
(lp29
F1.834915032075861
asS'Fitted_err_Zjets'
p30
(lp31
F2.825562177127592
asS'MC_exp_events_Diboson'
p32
(lp33
F9.320389747619629
asS'MC_exp_events_Zjets'
p34
(lp35
F40.82217025756836
asS'MC_exp_events_GAMMAjets'
p36
(lp37
F0.0
asS'TOTAL_FITTED_bkg_events_err'
p38
(lp39
F7.333667165146343
asS'MC_exp_err_GAMMAjets'
p40
(lp41
F0.0
asS'nobs'
p42
(lp43
F91.0
asS'Fitted_err_Wjets'
p44
(lp45
F4.020151284538825
asS'Fitted_events_Zjets'
p46
(lp47
F33.29006558085293
asS'MC_exp_events_Multijets'
p48
(lp49
F1.2430000305175781
asS'MC_exp_err_Zjets'
p50
(lp51
F3.1140112030691993
asS'Fitted_events_Wjets'
p52
(lp53
F31.253895691441045
asS'MC_exp_err_Diboson'
p54
(lp55
F4.761357420973322
asS'TOTAL_MC_EXP_BKG_events'
p56
(lp57
F108.24483013153076
asS'Fitted_events_Diboson'
p58
(lp59
F9.32024436498632
asS'MC_exp_err_Multijets'
p60
(lp61
F1.2364338573431692
as.