(dp0
S'Fitted_err_Top'
p1
(lp2
F8.481963935646819
aF2.579340451387866
aF0.8330670677167095
aF178.92946071592627
aF8.209661772389559
aF0.13644406113803265
aF0.15836123857697518
aF0.5884288422943588
aF3.6638783505542576
aF2.5735485143254113
aF8.838951346630695
aF0.813305621933058
aF4.882061521737975
aF15.950246911054107
aF1.0721784661168756
asS'Fitted_err_Multijets'
p3
(lp4
F0.0
aF0.0
aF0.0
aF198.67769724850405
aF0.0
aF0.0
aF0.0
aF0.0
aF0.0
aF0.0
aF0.0
aF0.0
aF0.0
aF79.21389706969755
aF0.14864287676127172
asS'MC_exp_err_Wjets'
p5
(lp6
F1.9258779845419371
aF2.918284190974682
aF4.2923905025891536
aF56.82229880150442
aF19.77894441106329
aF0.001238774880888173
aF0.28973223527439307
aF0.3590650627540303
aF0.009516806528791099
aF2.918284190974682
aF1.9258779845419371
aF2.321027986078461
aF3.247232771324323
aF4.469376976354489
aF2.9347237636697825
asS'Fitted_events_GAMMAjets'
p7
(lp8
F0.0
aF0.0
aF1096.8535003180402
aF0.0
aF305.13910694194385
aF0.0
aF0.0
aF0.0
aF0.0
aF0.0
aF0.0
aF0.0
aF0.0
aF0.0
aF0.0
asS'names'
p9
(lp10
S'CRT_cuts'
p11
aS'CRW_cuts'
p12
aS'CRY_cuts'
p13
aS'CRQ_cuts'
p14
aS'CRYQ_cuts'
p15
aS'VRZ_cuts'
p16
aS'VRW_cuts'
p17
aS'VRT_cuts'
p18
aS'VRZa_cuts'
p19
aS'VRWa_cuts'
p20
aS'VRTa_cuts'
p21
aS'VRZc_cuts'
p22
aS'VRZca_cuts'
p23
aS'VRQc_cuts'
p24
aS'SR_cuts'
p25
asS'TOTAL_MC_EXP_BKG_err'
p26
(lp27
F3.2713353114580794
aF3.3483567469227555
aF19.173356259751888
aF131.99394796458049
aF24.51220447087755
aF1.9259481350259038
aF0.4515905258505916
aF0.8095286064829409
aF8.452528309071646
aF5.585701640149929
aF3.3991152200886683
aF7.439927382491513
aF22.459460195087445
aF61.42471433180096
aF4.813070232335731
asS'Fitted_err_GAMMAjets'
p28
(lp29
F0.0
aF0.0
aF36.686194331867
aF0.0
aF13.344814851369597
aF0.0
aF0.0
aF0.0
aF0.0
aF0.0
aF0.0
aF0.0
aF0.0
aF0.0
aF0.0
asS'TOTAL_FITTED_bkg_events'
p30
(lp31
F61.9972276411659
aF133.00250969316542
aF1311.9992302823064
aF9144.655928333674
aF14299.981820566065
aF6.386715449296397
aF4.749011240759461
aF1.4117929446191346
aF88.3160015480398
aF133.00251125764595
aF61.99723593527881
aF50.91552829154659
aF225.5616817605205
aF230.92476243641306
aF50.00265435607068
asS'MC_exp_events_Wjets'
p32
(lp33
F16.00311851501465
aF138.91357421875
aF5.167868614196777
aF519.6614990234375
aF54.87229537963867
aF0.0014537633396685123
aF5.337797164916992
aF0.6749997735023499
aF0.01789211854338646
aF138.91357421875
aF16.00311851501465
aF16.057876586914062
aF84.93751525878906
aF48.57600021362305
aF15.659564018249512
asS'Fitted_events_Top'
p34
(lp35
F47.3864634958893
aF13.179959928459935
aF3.6084114925744513
aF796.5626674494641
aF38.56151710234953
aF0.45145629686275246
aF0.15532894292971341
aF0.7828402404539377
aF10.857162210219462
aF13.17996008349303
aF47.386469835345004
aF2.0799046213745482
aF21.140551033536475
aF71.90939191432828
aF5.049900477122057
asS'Fitted_err_Diboson'
p36
(lp37
F0.35984374564364313
aF1.0244948251971846
aF0.05523436138787861
aF3.325969371774666
aF0.7482678384846204
aF0.5376228574911712
aF0.22085624736567497
aF0.05086895088007356
aF4.646825475783979
aF4.586134548463086
aF0.9908458633111283
aF2.212626061412989
aF7.124373195810876
aF4.847268591271964
aF2.7716423013032427
asS'MC_exp_events_Top'
p38
(lp39
F56.8682975769043
aF15.816727638244629
aF4.330883979797363
aF955.9798583984375
aF46.27639389038086
aF0.541892945766449
aF0.18625286221504211
aF0.9392051696777344
aF13.031888961791992
aF15.816727638244629
aF56.8682975769043
aF2.495565414428711
aF25.37229347229004
aF86.30004119873047
aF6.060099124908447
asS'Fitted_events_Multijets'
p40
(lp41
F0.0
aF0.0
aF0.0
aF7631.177846628522
aF0.0
aF0.0
aF0.0
aF0.0
aF0.0
aF0.0
aF0.0
aF0.0
aF0.0
aF79.60963038735643
aF0.1493617645115332
asS'MC_exp_err_Top'
p42
(lp43
F1.9488163125352869
aF0.7535092884683445
aF0.6293460940221861
aF114.030256258753
aF4.4099782917836485
aF0.1391764661305478
aF0.18728218365857652
aF0.6881112337320459
aF3.6724283500363177
aF0.7535092884683445
aF1.9488163125352869
aF0.8650593918610036
aF3.482763350504789
aF9.804830387706096
aF0.5243596197450013
asS'Fitted_err_Zjets'
p44
(lp45
F0.2461395091478294
aF0.1759314055012642
aF1.4247110118302904
aF16.88027983307963
aF7.790861115928946
aF1.4980931361871679
aF0.02410820915644736
aF0.002094772848305007
aF5.427000396743793
aF0.18527182884474633
aF0.24621739849134214
aF5.459093610507086
aF17.2086670468356
aF4.464268809330894
aF2.0656930897443497
asS'MC_exp_events_Diboson'
p46
(lp47
F1.8463932275772095
aF8.940581321716309
aF0.5941720008850098
aF47.70083999633789
aF5.496519565582275
aF1.0681754350662231
aF0.32404017448425293
aF0.09135351330041885
aF9.2428560256958
aF8.940581321716309
aF1.8463932275772095
aF4.386538028717041
aF13.92098331451416
aF9.459343910217285
aF5.432929515838623
asS'MC_exp_events_Zjets'
p48
(lp49
F0.12860345840454102
aF1.207002878189087
aF0.6908139586448669
aF316.5199279785156
aF18.623363494873047
aF5.966962814331055
aF0.057537030428647995
aF0.004593124613165855
aF83.63227081298828
aF1.207002878189087
aF0.12860345840454102
aF38.92856216430664
aF151.19924926757812
aF38.650367736816406
aF33.0881233215332
asS'MC_exp_events_GAMMAjets'
p50
(lp51
F0.0
aF0.0
aF1345.0137939453125
aF0.0
aF374.1768493652344
aF0.0
aF0.0
aF0.0
aF0.0
aF0.0
aF0.0
aF0.0
aF0.0
aF0.0
aF0.0
asS'TOTAL_FITTED_bkg_events_err'
p52
(lp53
F7.876896634789027
aF11.533643679760488
aF36.22182027935174
aF95.64469979713044
aF119.58336008512183
aF1.6139556763436316
aF0.6232000925289515
aF0.6712738748762157
aF8.010569473605749
aF12.73993190729182
aF8.410657900451893
aF6.456168574354024
aF20.365863651195628
aF80.68057840193417
aF4.567996401032826
asS'MC_exp_err_GAMMAjets'
p54
(lp55
F0.0
aF0.0
aF16.07074217590679
aF0.0
aF9.14320038291552
aF0.0
aF0.0
aF0.0
aF0.0
aF0.0
aF0.0
aF0.0
aF0.0
aF0.0
aF0.0
asS'nobs'
p56
(lp57
F62.0
aF133.0
aF1312.0
aF9145.0
aF14300.0
aF3.0
aF6.0
aF1.0
aF76.0
aF133.0
aF62.0
aF51.0
aF265.0
aF172.0
aF58.0
asS'Fitted_err_Wjets'
p58
(lp59
F2.241550874268908
aF12.21991681293015
aF3.3430054134380525
aF69.42438535530606
aF15.613212633022066
aF0.000994170888204563
aF0.5527702590347424
aF0.2974375395757186
aF0.007902216368455341
aF12.540028886204153
aF2.2301437467246052
aF2.492909262186467
aF7.86221479725001
aF5.9934901036531105
aF2.875290478724856
asS'Fitted_events_Zjets'
p60
(lp61
F0.10488979581979507
aF0.9842912516752046
aF0.563434928102221
aF258.1227611120987
aF15.187789549908288
aF4.865934623260186
aF0.046919241763791635
aF0.003745574967465385
aF68.20190396487709
aF0.9842912632532155
aF0.1048898098521614
aF31.74640703430445
aF123.30339445169747
aF31.518865943781808
aF26.983233264881562
asS'MC_exp_events_Multijets'
p62
(lp63
F0.0
aF0.0
aF0.0
aF5773.3857421875
aF0.0
aF0.0
aF0.0
aF0.0
aF0.0
aF0.0
aF0.0
aF0.0
aF0.0
aF60.22885513305664
aF0.11299999803304672
asS'MC_exp_err_Zjets'
p64
(lp65
F0.3035531303447674
aF0.21091716949956188
aF1.7570527237852107
aF17.681891018219382
aF9.60331091734542
aF1.8262075193944918
aF0.02957399450278339
aF0.0025706887414363375
aF5.980809081350204
aF0.22261484214792215
aF0.3036479452874072
aF6.618206905485764
aF20.630038548413868
aF5.272807811008731
aF2.2324152215632087
asS'Fitted_events_Wjets'
p66
(lp67
F12.659527836946584
aF109.89783179134777
aF4.090254006200803
aF411.0923316967334
aF43.418483399794496
aF0.0011498982077515155
aF4.2227454378938445
aF0.5338570558442571
aF0.014150648243767631
aF109.89783308405283
aF12.659529530563496
aF12.702704033297778
aF67.1968811501856
aF38.427659788955026
aF12.387324665990198
asS'MC_exp_err_Diboson'
p68
(lp69
F0.3622640766070345
aF1.0313580347971991
aF0.05562599845010424
aF3.348744453814496
aF0.7534057310307493
aF0.5376417552729046
aF0.22166132211082107
aF0.05090236847822708
aF4.647170689139252
aF4.5877225274090385
aF0.9917294232353366
aF2.2128953953843307
aF7.126657511593176
aF4.848816632957843
aF2.7723931662616317
asS'TOTAL_MC_EXP_BKG_events'
p70
(lp71
F74.8464127779007
aF164.87788605690002
aF1556.148744046688
aF7613.2478675842285
aF13991.72374200821
aF7.578484958503395
aF5.905627232044935
aF1.710151581093669
aF105.92490791901946
aF164.87788605690002
aF74.8464127779007
aF61.868542194366455
aF275.4300413131714
aF243.21460819244385
aF60.35371597856283
asS'Fitted_events_Diboson'
p72
(lp73
F1.846346512510223
aF8.940426721682526
aF0.5941708180087414
aF47.70032144685546
aF5.496422422776903
aF1.0681746309657072
aF0.3240176181721106
aF0.09135007335347434
aF9.242784724699474
aF8.940426826846883
aF1.846346759518146
aF4.386512602569818
aF13.920855125100939
aF9.45921440199148
aF5.432834183565324
asS'MC_exp_err_Multijets'
p74
(lp75
F0.0
aF0.0
aF0.0
aF0.5773385742186292
aF0.0
aF0.0
aF0.0
aF0.0
aF0.0
aF0.0
aF0.0
aF0.0
aF0.0
aF59.908944772429585
aF0.11241763366948836
as.