(dp0
S'Fitted_err_Top'
p1
(lp2
F8.481963935646819
aF2.579340451387866
aF0.8330670677167095
aF178.92946071592627
aF8.209661772389559
aF0.14636408625207692
aF0.5727100908527788
asS'Fitted_err_Multijets'
p3
(lp4
F0.0
aF0.0
aF0.0
aF198.67769724850405
aF0.0
aF0.0
aF0.0
asS'MC_exp_err_Wjets'
p5
(lp6
F1.9258779845419371
aF2.918284190974682
aF4.2923905025891536
aF56.82229880150442
aF19.77894441106329
aF0.000543583636773117
aF1.4689830997510107
asS'Fitted_events_GAMMAjets'
p7
(lp8
F0.0
aF0.0
aF1096.8535003180402
aF0.0
aF305.13910694194385
aF0.0
aF0.0
asS'names'
p9
(lp10
S'CRT_cuts'
p11
aS'CRW_cuts'
p12
aS'CRY_cuts'
p13
aS'CRQ_cuts'
p14
aS'CRYQ_cuts'
p15
aS'VRZ_cuts'
p16
aS'SR_cuts'
p17
asS'TOTAL_MC_EXP_BKG_err'
p18
(lp19
F3.2713353114580794
aF3.3483567469227555
aF19.173356259751888
aF131.99394796458049
aF24.51220447087755
aF0.7796169675561879
aF2.032684512124052
asS'Fitted_err_GAMMAjets'
p20
(lp21
F0.0
aF0.0
aF36.686194331867
aF0.0
aF13.344814851369597
aF0.0
aF0.0
asS'TOTAL_FITTED_bkg_events'
p22
(lp23
F61.9972276411659
aF133.00250969316542
aF1311.9992302823064
aF9144.655928333674
aF14299.981820566065
aF1.6957323863544438
aF12.23326686687795
asS'MC_exp_events_Wjets'
p24
(lp25
F16.00311851501465
aF138.91357421875
aF5.167868614196777
aF519.6614990234375
aF54.87229537963867
aF0.0007541471277363598
aF3.585249423980713
asS'Fitted_events_Top'
p26
(lp27
F47.3864634958893
aF13.179959928459935
aF3.6084114925744513
aF796.5626674494641
aF38.56151710234953
aF0.18276834500156816
aF1.3355303691708256
asS'Fitted_err_Diboson'
p28
(lp29
F0.35984374564364313
aF1.0244948251971846
aF0.05523436138787861
aF3.325969371774666
aF0.7482678384846204
aF0.18617557628029788
aF0.8928264891829566
asS'MC_exp_events_Top'
p30
(lp31
F56.8682975769043
aF15.816727638244629
aF4.330883979797363
aF955.9798583984375
aF46.27639389038086
aF0.219436377286911
aF1.6028850078582764
asS'Fitted_events_Multijets'
p32
(lp33
F0.0
aF0.0
aF0.0
aF7631.177846628522
aF0.0
aF0.0
aF0.0
asS'MC_exp_err_Top'
p34
(lp35
F1.9488163125352869
aF0.7535092884683445
aF0.6293460940221861
aF114.030256258753
aF4.4099782917836485
aF0.17011965106100918
aF0.6335939294169975
asS'Fitted_err_Zjets'
p36
(lp37
F0.2461395091478294
aF0.1759314055012642
aF1.4247110118302904
aF16.88027983307963
aF7.790861115928946
aF0.5928026267398552
aF0.6091642284259677
asS'MC_exp_events_Diboson'
p38
(lp39
F1.8463932275772095
aF8.940581321716309
aF0.5941720008850098
aF47.70083999633789
aF5.496519565582275
aF0.3627767860889435
aF1.5446664094924927
asS'MC_exp_events_Zjets'
p40
(lp41
F0.12860345840454102
aF1.207002878189087
aF0.6908139586448669
aF316.5199279785156
aF18.623363494873047
aF1.4097297191619873
aF7.991947650909424
asS'MC_exp_events_GAMMAjets'
p42
(lp43
F0.0
aF0.0
aF1345.0137939453125
aF0.0
aF374.1768493652344
aF0.0
aF0.0
asS'TOTAL_FITTED_bkg_events_err'
p44
(lp45
F7.876896634789027
aF11.533643679760488
aF36.22182027935174
aF95.64469979713044
aF119.58336008512183
aF0.6487670904644262
aF1.7738990599995788
asS'MC_exp_err_GAMMAjets'
p46
(lp47
F0.0
aF0.0
aF16.07074217590679
aF0.0
aF9.14320038291552
aF0.0
aF0.0
asS'nobs'
p48
(lp49
F62.0
aF133.0
aF1312.0
aF9145.0
aF14300.0
aF1.0
aF13.0
asS'Fitted_err_Wjets'
p50
(lp51
F2.241550874268908
aF12.21991681293015
aF3.3430054134380525
aF69.42438535530606
aF15.613212633022066
aF0.00043728316548367674
aF1.2455102933095983
asS'Fitted_events_Zjets'
p52
(lp53
F0.10488979581979507
aF0.9842912516752046
aF0.563434928102221
aF258.1227611120987
aF15.187789549908288
aF1.1495904055241106
aF6.517375340989065
asS'MC_exp_events_Multijets'
p54
(lp55
F0.0
aF0.0
aF0.0
aF5773.3857421875
aF0.0
aF0.0
aF0.0
asS'MC_exp_err_Zjets'
p56
(lp57
F0.3035531303447674
aF0.21091716949956188
aF1.7570527237852107
aF17.681891018219382
aF9.60331091734542
aF0.7270855746989578
aF0.6852997280923402
asS'Fitted_events_Wjets'
p58
(lp59
F12.659527836946584
aF109.89783179134777
aF4.090254006200803
aF411.0923316967334
aF43.418483399794496
aF0.0005964731133056308
aF2.835715584752182
asS'MC_exp_err_Diboson'
p60
(lp61
F0.3622640766070345
aF1.0313580347971991
aF0.05562599845010424
aF3.348744453814496
aF0.7534057310307493
aF0.1861870939820428
aF0.8943872530363742
asS'TOTAL_MC_EXP_BKG_events'
p62
(lp63
F74.8464127779007
aF164.87788605690002
aF1556.148744046688
aF7613.2478675842285
aF13991.72374200821
aF1.9926970296655782
aF14.724748492240906
asS'Fitted_events_Diboson'
p64
(lp65
F1.846346512510223
aF8.940426721682526
aF0.5941708180087414
aF47.70032144685546
aF5.496422422776903
aF0.3627771627154594
aF1.5446455719658767
asS'MC_exp_err_Multijets'
p66
(lp67
F0.0
aF0.0
aF0.0
aF0.5773385742186292
aF0.0
aF0.0
aF0.0
as.