(dp0
S'Fitted_err_Top'
p1
(lp2
F8.481963935646819
aF2.579340451387866
aF0.8330670677167095
aF178.92946071592627
aF8.209661772389559
aF0.14636408625207692
aF0.0
aF0.06443066899316358
aF3.6638783505542576
aF2.5735485143254113
aF8.838951346630695
aF0.5343142039664441
aF4.882061521737975
aF10.171672419634756
aF0.5727100908527788
asS'Fitted_err_Multijets'
p3
(lp4
F0.0
aF0.0
aF0.0
aF198.67769724850405
aF0.0
aF0.0
aF0.0
aF0.0
aF0.0
aF0.0
aF0.0
aF0.0
aF0.0
aF44.59107118296731
aF0.0
asS'MC_exp_err_Wjets'
p5
(lp6
F1.9258779845419371
aF2.918284190974682
aF4.2923905025891536
aF56.82229880150442
aF19.77894441106329
aF0.000543583636773117
aF0.17594523900955464
aF0.06715318498318669
aF0.009516806528791099
aF2.918284190974682
aF1.9258779845419371
aF1.039069424098185
aF3.247232771324323
aF2.605125427199952
aF1.4689830997510107
asS'Fitted_events_GAMMAjets'
p7
(lp8
F0.0
aF0.0
aF1096.8535003180402
aF0.0
aF305.13910694194385
aF0.0
aF0.0
aF0.0
aF0.0
aF0.0
aF0.0
aF0.0
aF0.0
aF0.0
aF0.0
asS'names'
p9
(lp10
S'CRT_cuts'
p11
aS'CRW_cuts'
p12
aS'CRY_cuts'
p13
aS'CRQ_cuts'
p14
aS'CRYQ_cuts'
p15
aS'VRZ_cuts'
p16
aS'VRW_cuts'
p17
aS'VRT_cuts'
p18
aS'VRZa_cuts'
p19
aS'VRWa_cuts'
p20
aS'VRTa_cuts'
p21
aS'VRZc_cuts'
p22
aS'VRZca_cuts'
p23
aS'VRQc_cuts'
p24
aS'SR_cuts'
p25
asS'TOTAL_MC_EXP_BKG_err'
p26
(lp27
F3.2713353114580794
aF3.3483567469227555
aF19.173356259751888
aF131.99394796458049
aF24.51220447087755
aF0.7796169675561879
aF0.2152780521733102
aF0.12817959801898818
aF8.452528309071646
aF5.585701640149929
aF3.3991152200886683
aF5.3108867144578795
aF22.459460195087445
aF35.21703396702878
aF2.032684512124052
asS'Fitted_err_GAMMAjets'
p28
(lp29
F0.0
aF0.0
aF36.686194331867
aF0.0
aF13.344814851369597
aF0.0
aF0.0
aF0.0
aF0.0
aF0.0
aF0.0
aF0.0
aF0.0
aF0.0
aF0.0
asS'TOTAL_FITTED_bkg_events'
p30
(lp31
F61.9972276411659
aF133.00250969316542
aF1311.9992302823064
aF9144.655928333674
aF14299.981820566065
aF1.6957323863544438
aF0.6333782872276441
aF0.18125619237279555
aF88.3160015480398
aF133.00251125764595
aF61.99723593527881
aF52.13694331821988
aF225.5616817605205
aF131.28868404989421
aF12.23326686687795
asS'MC_exp_events_Wjets'
p32
(lp33
F16.00311851501465
aF138.91357421875
aF5.167868614196777
aF519.6614990234375
aF54.87229537963867
aF0.0007541471277363598
aF0.7319060564041138
aF0.09559427946805954
aF0.01789211854338646
aF138.91357421875
aF16.00311851501465
aF15.507841110229492
aF84.93751525878906
aF26.689777374267578
aF3.585249423980713
asS'Fitted_events_Top'
p34
(lp35
F47.3864634958893
aF13.179959928459935
aF3.6084114925744513
aF796.5626674494641
aF38.56151710234953
aF0.18276834500156816
aF0.0
aF0.09020397931580676
aF10.857162210219462
aF13.17996008349303
aF47.386469835345004
aF2.065021172013653
aF21.140551033536475
aF41.722141268938344
aF1.3355303691708256
asS'Fitted_err_Diboson'
p36
(lp37
F0.35984374564364313
aF1.0244948251971846
aF0.05523436138787861
aF3.325969371774666
aF0.7482678384846204
aF0.18617557628029788
aF0.09342879526435491
aF0.013130108510794486
aF4.646825475783979
aF4.586134548463086
aF0.9908458633111283
aF2.200704125260058
aF7.124373195810876
aF2.972087894472187
aF0.8928264891829566
asS'MC_exp_events_Top'
p38
(lp39
F56.8682975769043
aF15.816727638244629
aF4.330883979797363
aF955.9798583984375
aF46.27639389038086
aF0.219436377286911
aF0.0
aF0.10820411145687103
aF13.031888961791992
aF15.816727638244629
aF56.8682975769043
aF2.4778621196746826
aF25.37229347229004
aF50.07375717163086
aF1.6028850078582764
asS'Fitted_events_Multijets'
p40
(lp41
F0.0
aF0.0
aF0.0
aF7631.177846628522
aF0.0
aF0.0
aF0.0
aF0.0
aF0.0
aF0.0
aF0.0
aF0.0
aF0.0
aF44.80865820560483
aF0.0
asS'MC_exp_err_Top'
p42
(lp43
F1.9488163125352869
aF0.7535092884683445
aF0.6293460940221861
aF114.030256258753
aF4.4099782917836485
aF0.17011965106100918
aF0.0
aF0.07408903354469847
aF3.6724283500363177
aF0.7535092884683445
aF1.9488163125352869
aF0.4337284923962099
aF3.482763350504789
aF7.817448909001283
aF0.6335939294169975
asS'Fitted_err_Zjets'
p44
(lp45
F0.2461395091478294
aF0.1759314055012642
aF1.4247110118302904
aF16.88027983307963
aF7.790861115928946
aF0.5928026267398552
aF0.006200173604430023
aF0.00011689819981146958
aF5.427000396743793
aF0.18527182884474633
aF0.24621739849134214
aF3.9058119370040747
aF17.2086670468356
aF3.492436494553327
aF0.6091642284259677
asS'MC_exp_events_Diboson'
p46
(lp47
F1.8463932275772095
aF8.940581321716309
aF0.5941720008850098
aF47.70083999633789
aF5.496519565582275
aF0.3627767860889435
aF0.04285858944058418
aF0.015336337499320507
aF9.2428560256958
aF8.940581321716309
aF1.8463932275772095
aF4.348984718322754
aF13.92098331451416
aF5.76080846786499
aF1.5446664094924927
asS'MC_exp_events_Zjets'
p48
(lp49
F0.12860345840454102
aF1.207002878189087
aF0.6908139586448669
aF316.5199279785156
aF18.623363494873047
aF1.4097297191619873
aF0.014187430962920189
aF0.00013748850324191153
aF83.63227081298828
aF1.207002878189087
aF0.12860345840454102
aF41.023658752441406
aF151.19924926757812
aF21.929901123046875
aF7.991947650909424
asS'MC_exp_events_GAMMAjets'
p50
(lp51
F0.0
aF0.0
aF1345.0137939453125
aF0.0
aF374.1768493652344
aF0.0
aF0.0
aF0.0
aF0.0
aF0.0
aF0.0
aF0.0
aF0.0
aF0.0
aF0.0
asS'TOTAL_FITTED_bkg_events_err'
p52
(lp53
F7.876896634789027
aF11.533643679760488
aF36.22182027935174
aF95.64469979713044
aF119.58336008512183
aF0.6487670904644262
aF0.20140765549420453
aF0.10606655438079592
aF8.010569473605749
aF12.73993190729182
aF8.410657900451893
aF4.8587202555646085
aF20.365863651195628
aF45.758069989666986
aF1.7738990599995788
asS'MC_exp_err_GAMMAjets'
p54
(lp55
F0.0
aF0.0
aF16.07074217590679
aF0.0
aF9.14320038291552
aF0.0
aF0.0
aF0.0
aF0.0
aF0.0
aF0.0
aF0.0
aF0.0
aF0.0
aF0.0
asS'nobs'
p56
(lp57
F62.0
aF133.0
aF1312.0
aF9145.0
aF14300.0
aF1.0
aF0.0
aF0.0
aF76.0
aF133.0
aF62.0
aF54.0
aF265.0
aF99.0
aF13.0
asS'Fitted_err_Wjets'
p58
(lp59
F2.241550874268908
aF12.21991681293015
aF3.3430054134380525
aF69.42438535530606
aF15.613212633022066
aF0.00043728316548367674
aF0.16192032686936123
aF0.05457177645415396
aF0.007902216368455341
aF12.540028886204153
aF2.2301437467246052
aF1.7149434512390507
aF7.86221479725001
aF3.359331827504901
aF1.2455102933095983
asS'Fitted_events_Zjets'
p60
(lp61
F0.10488979581979507
aF0.9842912516752046
aF0.563434928102221
aF258.1227611120987
aF15.187789549908288
aF1.1495904055241106
aF0.011569506025471982
aF0.00011211804006008078
aF68.20190396487709
aF0.9842912632532155
aF0.1048898098521614
aF33.454837514264824
aF123.30339445169747
aF17.883400945938437
aF6.517375340989065
asS'MC_exp_events_Multijets'
p62
(lp63
F0.0
aF0.0
aF0.0
aF5773.3857421875
aF0.0
aF0.0
aF0.0
aF0.0
aF0.0
aF0.0
aF0.0
aF0.0
aF0.0
aF33.90009689331055
aF0.0
asS'MC_exp_err_Zjets'
p64
(lp65
F0.3035531303447674
aF0.21091716949956188
aF1.7570527237852107
aF17.681891018219382
aF9.60331091734542
aF0.7270855746989578
aF0.0076095647285928355
aF0.0001439219515445594
aF5.980809081350204
aF0.22261484214792215
aF0.3036479452874072
aF4.611063251246753
aF20.630038548413868
aF4.202669796794378
aF0.6852997280923402
asS'Fitted_events_Wjets'
p66
(lp67
F12.659527836946584
aF109.89783179134777
aF4.090254006200803
aF411.0923316967334
aF43.418483399794496
aF0.0005964731133056308
aF0.5789565991381967
aF0.07560547106580172
aF0.014150648243767631
aF109.89783308405283
aF12.659529530563496
aF12.268115995319304
aF67.1968811501856
aF21.113803978148347
aF2.835715584752182
asS'MC_exp_err_Diboson'
p68
(lp69
F0.3622640766070345
aF1.0313580347971991
aF0.05562599845010424
aF3.348744453814496
aF0.7534057310307493
aF0.1861870939820428
aF0.09440167327287824
aF0.013160803205794911
aF4.647170689139252
aF4.5877225274090385
aF0.9917294232353366
aF2.201063911703469
aF7.126657511593176
aF2.9733685026372014
aF0.8943872530363742
asS'TOTAL_MC_EXP_BKG_events'
p70
(lp71
F74.8464127779007
aF164.87788605690002
aF1556.148744046688
aF7613.2478675842285
aF13991.72374200821
aF1.9926970296655782
aF0.7889520768076181
aF0.219272216927493
aF105.92490791901946
aF164.87788605690002
aF74.8464127779007
aF63.358346700668335
aF275.4300413131714
aF138.35434103012085
aF14.724748492240906
asS'Fitted_events_Diboson'
p72
(lp73
F1.846346512510223
aF8.940426721682526
aF0.5941708180087414
aF47.70032144685546
aF5.496422422776903
aF0.3627771627154594
aF0.0428521820639753
aF0.015334623951126974
aF9.242784724699474
aF8.940426826846883
aF1.846346759518146
aF4.348968636622096
aF13.920855125100939
aF5.760679651264261
aF1.5446455719658767
asS'MC_exp_err_Multijets'
p74
(lp75
F0.0
aF0.0
aF0.0
aF0.5773385742186292
aF0.0
aF0.0
aF0.0
aF0.0
aF0.0
aF0.0
aF0.0
aF0.0
aF0.0
aF33.72393394537772
aF0.0
as.