(dp0
S'Fitted_err_Top'
p1
(lp2
F8.008975203666152
aF4.011885306488983
aF0.7772412904634636
aF149.76753495256432
aF8.646562160220425
aF0.28138049452576175
aF1.0818056709663808
aF2.470553663630441
aF1.2023339242578226
aF3.654830276031454
aF6.987700878465102
aF1.9919734146476382
aF4.011885306488983
aF8.261148632904671
aF33.09450146570352
aF52.56845213301794
aF2.8564395490357746
asS'Fitted_err_Multijets'
p3
(lp4
F0.0
aF0.0
aF0.0
aF152.6605445467788
aF0.0
aF0.0
aF0.0
aF0.0
aF0.0
aF0.0
aF0.0
aF0.0
aF0.0
aF0.0
aF133.70563881893807
aF4.277310285229307
aF0.4888605531293372
asS'MC_exp_err_Wjets'
p5
(lp6
F2.854648998991989
aF2.775132866890275
aF2.829980944191688
aF10.906445093212394
aF21.899698992400534
aF0.005487060351622535
aF2.518682931765817
aF1.7021355482859037
aF0.010419692971481286
aF2.0170211604140857
aF2.4137550421364127
aF0.04266336713223808
aF2.775132866890275
aF2.854648998991989
aF4.665313815079471
aF25.047851522500384
aF7.181412004639975
asS'Fitted_events_GAMMAjets'
p7
(lp8
F0.0
aF0.0
aF1572.3769776800732
aF0.0
aF271.4750758458194
aF0.0
aF0.0
aF0.0
aF0.0
aF0.0
aF0.0
aF0.0
aF0.0
aF0.0
aF0.0
aF0.0
aF0.0
asS'names'
p9
(lp10
S'CRT_cuts'
p11
aS'CRW_cuts'
p12
aS'CRY_cuts'
p13
aS'CRQ_cuts'
p14
aS'CRYQ_cuts'
p15
aS'VRZ_cuts'
p16
aS'VRW_cuts'
p17
aS'VRT_cuts'
p18
aS'VRZa_cuts'
p19
aS'VRWa_cuts'
p20
aS'VRTa_cuts'
p21
aS'VRZb_cuts'
p22
aS'VRWb_cuts'
p23
aS'VRTb_cuts'
p24
aS'VRQa_cuts'
p25
aS'VRQb_cuts'
p26
aS'SR_cuts'
p27
asS'TOTAL_MC_EXP_BKG_err'
p28
(lp29
F3.320920365690657
aF2.8475475848884537
aF30.515709431204716
aF59.18538006709517
aF203.27157420768674
aF5.117184267523154
aF2.8689529184378717
aF2.1574370518252493
aF9.879590517256352
aF4.845755677756787
aF3.2886356317654712
aF16.416440496822247
aF5.954222856931733
aF3.4808480921631535
aF123.81559811340789
aF153.5252667091679
aF24.622766156386852
asS'Fitted_err_GAMMAjets'
p30
(lp31
F0.0
aF0.0
aF43.88803688760053
aF0.0
aF12.197518403419412
aF0.0
aF0.0
aF0.0
aF0.0
aF0.0
aF0.0
aF0.0
aF0.0
aF0.0
aF0.0
aF0.0
aF0.0
asS'TOTAL_FITTED_bkg_events'
p32
(lp33
F50.999687939043504
aF174.00021234681967
aF1866.0027901011538
aF2390.1457095923774
aF14415.024623714693
aF29.556935049310958
aF48.09976834870598
aF13.59720318579171
aF72.94894425935317
aF144.63351893906378
aF41.85859317772662
aF109.64368304773951
aF174.00021234681967
aF50.999603733108884
aF461.7768526143448
aF1184.2023541877893
aF189.6162221034283
asS'MC_exp_events_Wjets'
p34
(lp35
F19.910778045654297
aF197.7989501953125
aF6.7205376625061035
aF562.0624389648438
aF34.5727424621582
aF0.009326107800006866
aF55.29075241088867
aF5.987992286682129
aF0.020233701914548874
aF163.1056671142578
aF16.142480850219727
aF0.08523742854595184
aF197.7989501953125
aF19.910778045654297
aF152.11767578125
aF419.5665283203125
aF59.755393981933594
asS'Fitted_events_Top'
p36
(lp37
F34.04633687548112
aF15.974268311383776
aF2.736295660089347
aF587.3837610611791
aF35.43882711398829
aF0.9943262142332854
aF4.223278396777324
aF8.560684760419866
aF3.136858093036069
aF14.332405584754799
aF27.975812269284944
aF4.706968933446314
aF15.974268311383776
aF34.04628066134074
aF131.07900475311658
aF207.45399394546035
aF11.226320578947266
asS'Fitted_err_Diboson'
p38
(lp39
F0.1220745080704508
aF0.5044950557947785
aF0.1897743813207155
aF1.3178452866752897
aF0.353806720283412
aF1.1750188137406823
aF1.337803016778773
aF0.27155787327623104
aF2.8122414028843368
aF4.294946692909937
aF0.9134581359412165
aF3.961353067605209
aF5.252500281350757
aF1.050059063626041
aF8.093021375441284
aF21.95210171858253
aF4.505808106230628
asS'MC_exp_events_Top'
p40
(lp41
F27.154382705688477
aF12.740553855895996
aF2.1823980808258057
aF468.4760437011719
aF28.265056610107422
aF0.7930458784103394
aF3.368368625640869
aF6.827828884124756
aF2.5018160343170166
aF11.431026458740234
aF22.312768936157227
aF3.754042863845825
aF12.740553855895996
aF27.154382705688477
aF104.54398345947266
aF165.4582977294922
aF8.953701972961426
asS'Fitted_events_Multijets'
p42
(lp43
F0.0
aF0.0
aF0.0
aF1106.2064589425675
aF0.0
aF0.0
aF0.0
aF0.0
aF0.0
aF0.0
aF0.0
aF0.0
aF0.0
aF0.0
aF133.1591928425877
aF4.260143983230251
aF0.4868737457512792
asS'MC_exp_err_Top'
p44
(lp45
F1.077907123720356
aF0.5731630051178784
aF0.32530623579158985
aF32.054127173000495
aF1.131640530818784
aF0.11892427885785879
aF0.2775504245806293
aF1.1511097495873428
aF0.7443657886126791
aF0.707400893542107
aF1.7456318075765815
aF1.3139247908857317
aF0.5731630051178784
aF1.077907123720356
aF7.133193985611612
aF12.040338650895848
aF0.595516442976892
asS'Fitted_err_Zjets'
p46
(lp47
F0.07803954769195039
aF0.1442508819605938
aF1.6173353301873792
aF36.030200218481994
aF9.150270226814053
aF4.358690841078898
aF0.2105828792744341
aF0.03806732199288733
aF8.351601361224793
aF0.2574601247089226
aF0.06942151790430427
aF13.96618972349796
aF0.167560903395311
aF0.07858253716096007
aF6.434283113357697
aF128.90243817634462
aF20.21413353506083
asS'MC_exp_events_Diboson'
p48
(lp49
F2.085836887359619
aF10.456500053405762
aF0.7227261066436768
aF39.476226806640625
aF2.5110275745391846
aF2.2643003463745117
aF2.612130880355835
aF0.5366060733795166
aF5.543970584869385
aF8.57502555847168
aF1.8176119327545166
aF7.884721279144287
aF10.456500053405762
aF2.085836887359619
aF16.03375816345215
aF43.804378509521484
aF8.90240478515625
asS'MC_exp_events_Zjets'
p50
(lp51
F0.1797611564397812
aF1.6644930839538574
aF1.0213137865066528
aF278.5868835449219
aF14.2632417678833
aF30.28537940979004
aF0.48305949568748474
aF0.08628439903259277
aF74.01371002197266
aF1.4169845581054688
aF0.15884780883789062
aF111.72252655029297
aF1.6644930839538574
aF0.1797611564397812
aF79.62954711914062
aF712.7382202148438
aF143.82861328125
asS'MC_exp_events_GAMMAjets'
p52
(lp53
F0.0
aF0.0
aF1811.19970703125
aF0.0
aF312.7074279785156
aF0.0
aF0.0
aF0.0
aF0.0
aF0.0
aF0.0
aF0.0
aF0.0
aF0.0
aF0.0
aF0.0
aF0.0
asS'TOTAL_FITTED_bkg_events_err'
p54
(lp55
F7.1352693238693385
aF13.189971421142358
aF43.19746904154249
aF48.9028784216257
aF120.06801474011753
aF4.521704545668212
aF4.174401927668818
aF2.5040164604939554
aF8.899725947851636
aF11.825188735941449
aF6.500745067103889
aF14.663910903448139
aF14.188617211491074
aF7.607152456398457
aF133.81808958712213
aF142.2774569328615
aF21.647223883759278
asS'MC_exp_err_GAMMAjets'
p56
(lp57
F0.0
aF0.0
aF26.098630231007995
aF0.0
aF9.282430639284028
aF0.0
aF0.0
aF0.0
aF0.0
aF0.0
aF0.0
aF0.0
aF0.0
aF0.0
aF0.0
aF0.0
aF0.0
asS'nobs'
p58
(lp59
F51.0
aF174.0
aF1866.0
aF2390.0
aF14415.0
aF31.0
aF52.0
aF11.0
aF87.0
aF151.0
aF40.0
aF112.0
aF174.0
aF51.0
aF375.0
aF1344.0
aF221.0
asS'Fitted_err_Wjets'
p60
(lp61
F2.820210979805352
aF14.404341575808342
aF2.029732516383059
aF42.10125716762742
aF15.71029284084777
aF0.004229802734462407
aF4.158780438042913
aF1.4092225268354446
aF0.008107407640966752
aF12.117812475801927
aF2.335071278310673
aF0.03322103618402019
aF14.404341575808342
aF2.805920267552505
aF11.16862885686158
aF32.54799243908685
aF6.117881219348036
asS'Fitted_events_Zjets'
p62
(lp63
F0.15606960133194808
aF1.4449924826762854
aF0.8864085204257821
aF241.84794822902558
aF12.381184333391488
aF26.291427950622126
aF0.4193939488723838
aF0.07491317498232407
aF64.25323109140304
aF1.2301021592228507
aF0.13791215555828398
aF96.98904691786977
aF1.4449924826762854
aF0.15606934364435865
aF69.12898272557153
aF618.7402761554284
aF124.86083058394706
asS'MC_exp_events_Multijets'
p64
(lp65
F0.0
aF0.0
aF0.0
aF1026.97119140625
aF0.0
aF0.0
aF0.0
aF0.0
aF0.0
aF0.0
aF0.0
aF0.0
aF0.0
aF0.0
aF123.62127685546875
aF3.954998731613159
aF0.4519999921321869
asS'MC_exp_err_Zjets'
p66
(lp67
F0.09024930096091409
aF0.15985839121163495
aF1.8786391439642205
aF41.07113896792891
aF10.625898936813321
aF4.982131736319176
aF0.24350784191259395
aF0.04401510318853112
aF9.430733295899868
aF0.2963805559504564
aF0.0802755490160429
aF15.866599718929086
aF0.18761381965709195
aF0.09087035607565157
aF7.024782079886397
aF148.3544640441713
aF23.087389973126943
asS'Fitted_events_Wjets'
p68
(lp69
F14.711455584175257
aF146.12451928467343
aF4.962690879620561
aF415.2315309330713
aF25.52427413929259
aF0.006893232163982386
aF40.84501483491157
aF4.42500343527789
aF0.014955747385195584
aF120.49602074273687
aF11.927257443890515
aF0.06300346754724452
aF146.12451928467343
aF14.711431293990017
aF112.37608217631688
aF309.94371653275107
aF44.139920047992824
asS'MC_exp_err_Diboson'
p70
(lp71
F0.12294025566621762
aF0.5082687226311281
aF0.1913518307722777
aF1.3285975906206944
aF0.35624162189602626
aF1.1756079998740374
aF1.3383057697943919
aF0.2715807013939363
aF2.812909575583791
aF4.295062873135506
aF0.9134929395050005
aF3.961669560972212
aF5.252897813219267
aF1.0501396034008008
aF8.094245187290774
aF21.9529093605013
aF4.506754451230333
asS'TOTAL_MC_EXP_BKG_events'
p72
(lp73
F49.330758795142174
aF222.66049718856812
aF2104.4126921892166
aF2375.572784423828
aF14373.342933893204
aF33.3520517423749
aF61.75431141257286
aF13.438711643218994
aF82.0797303430736
aF184.5287036895752
aF40.43170952796936
aF123.44652812182903
aF222.66049718856812
aF49.330758795142174
aF475.9462413787842
aF1345.522423505783
aF221.89211401343346
asS'Fitted_events_Diboson'
p74
(lp75
F2.0858258780551853
aF10.456432268086168
aF0.7226902616856887
aF39.47601042653411
aF2.511036230545208
aF2.2642876522915647
aF2.6120811681447034
aF0.5366018151116294
aF5.5438993275288695
aF8.574990452349256
aF1.8176113089928825
aF7.884663728876187
aF10.456432268086168
aF2.0858224341337688
aF16.03359011675212
aF43.80422357091915
aF8.902277146789894
asS'MC_exp_err_Multijets'
p76
(lp77
F0.0
aF0.0
aF0.0
aF0.10269711914065738
aF0.0
aF0.0
aF0.0
aF0.0
aF0.0
aF0.0
aF0.0
aF0.0
aF0.0
aF0.0
aF122.95062008232686
aF3.9332462584736447
aF0.4495373733642654
as.