(dp0
S'Fitted_err_Top'
p1
(lp2
F6.0992443770972065
aF1.6258665207542067
aF0.22540466722735117
aF21.261963969493113
aF1.2430701574748022
aF0.08344074542857365
aF0.1542331178235543
aF0.7984637807237824
aF0.08318156947339846
aF0.31164613026784005
aF1.0617095286599927
aF0.37494111376271494
aF0.9272090046542851
aF2.500925419973107
aF4.112164540253596
aF4.367245697932289
aF0.2793200048390396
asS'Fitted_err_Multijets'
p3
(lp4
F0.0
aF0.0
aF0.0
aF33.63721811504851
aF0.0
aF0.0
aF0.0
aF0.0
aF0.0
aF0.0
aF0.0
aF0.0
aF0.0
aF0.0
aF38.898226384947364
aF6.991934618138709
aF0.0
asS'MC_exp_err_Wjets'
p5
(lp6
F0.540661925389729
aF1.1769936220351955
aF0.32193127629981444
aF7.167559771383992
aF2.7918252510357298
aF0.0
aF0.8622877340237851
aF0.25518701114099773
aF0.0
aF1.015228852861322
aF0.14751818104795725
aF0.0
aF1.3510064097344456
aF0.3541631739636919
aF0.7955518470006206
aF6.187039932781008
aF0.6144470417479765
asS'Fitted_events_GAMMAjets'
p7
(lp8
F0.0
aF0.0
aF113.40803268927615
aF0.0
aF21.595420882535617
aF0.0
aF0.0
aF0.0
aF0.0
aF0.0
aF0.0
aF0.0
aF0.0
aF0.0
aF0.0
aF0.0
aF0.0
asS'names'
p9
(lp10
S'CRT_cuts'
p11
aS'CRW_cuts'
p12
aS'CRY_cuts'
p13
aS'CRQ_cuts'
p14
aS'CRYQ_cuts'
p15
aS'VRZ_cuts'
p16
aS'VRW_cuts'
p17
aS'VRT_cuts'
p18
aS'VRZa_cuts'
p19
aS'VRWa_cuts'
p20
aS'VRTa_cuts'
p21
aS'VRZb_cuts'
p22
aS'VRWb_cuts'
p23
aS'VRTb_cuts'
p24
aS'VRQa_cuts'
p25
aS'VRQb_cuts'
p26
aS'SR_cuts'
p27
asS'TOTAL_MC_EXP_BKG_err'
p28
(lp29
F2.313298440685972
aF1.9994663726973758
aF6.205044747118516
aF14.035758998225736
aF56.98863505180952
aF0.2239716478562779
aF0.9574484152637547
aF1.0255373016251268
aF0.21651171386203755
aF1.2267762528485535
aF1.2906761879145177
aF1.2748041002511004
aF2.070653260588235
aF1.7349527763450916
aF24.711240381537085
aF11.43288971634328
aF0.879038758633977
asS'Fitted_err_GAMMAjets'
p30
(lp31
F0.0
aF0.0
aF11.454332927534605
aF0.0
aF3.4175174889549202
aF0.0
aF0.0
aF0.0
aF0.0
aF0.0
aF0.0
aF0.0
aF0.0
aF0.0
aF0.0
aF0.0
aF0.0
asS'TOTAL_FITTED_bkg_events'
p32
(lp33
F31.862275216953996
aF58.08275176270379
aF128.95462116793632
aF674.0007442691767
aF1020.1893599134049
aF0.6280342700249759
aF4.702546469958258
aF2.883557256693833
aF0.7494564769479435
aF6.141697634541399
aF4.122219335220646
aF5.842298955598355
aF33.16444372313201
aF13.954602284003162
aF64.14244060466831
aF59.29885323915646
aF4.194301820610052
asS'MC_exp_events_Wjets'
p34
(lp35
F10.177908897399902
aF54.55619812011719
aF0.37901371717453003
aF47.27018737792969
aF3.9797754287719727
aF0.0
aF4.338347434997559
aF0.8131332397460938
aF0.0
aF5.508204460144043
aF1.085544466972351
aF0.0
aF31.335182189941406
aF5.719546794891357
aF7.790892124176025
aF20.3751163482666
aF1.5864417552947998
asS'Fitted_events_Top'
p36
(lp37
F21.871956059413826
aF4.427085203262925
aF0.4365502677015871
aF72.3053911996452
aF3.839054702857167
aF0.00370492548051653
aF0.2988678782644698
aF2.052439103960559
aF0.004694489607583506
aF0.29909678689075764
aF3.0393188456107594
aF0.5215596475334479
aF2.429229588999761
aF8.292473078910236
aF13.209471121302473
aF12.629403251979541
aF0.137459211851732
asS'Fitted_err_Diboson'
p38
(lp39
F0.3359869642706232
aF0.5875468826458821
aF0.0
aF0.41692141350952944
aF0.06667691374527189
aF0.12057251092201926
aF0.24533620218605423
aF0.06434327430064309
aF0.11953030164157478
aF0.4478173302076964
aF0.22780933364930236
aF0.39614672307433757
aF1.1839430003979758
aF0.2722579970026114
aF0.7391965653254882
aF2.071901600308707
aF0.30571630451269044
asS'MC_exp_events_Top'
p40
(lp41
F34.51395797729492
aF6.996321678161621
aF0.6896622776985168
aF114.16490936279297
aF6.057939529418945
aF0.005724458955228329
aF0.4717225432395935
aF3.232546091079712
aF0.0072942147962749004
aF0.4730542004108429
aF4.7894792556762695
aF0.8208505511283875
aF3.839373826980591
aF13.078914642333984
aF20.83098793029785
aF19.957393646240234
aF0.21768520772457123
asS'Fitted_events_Multijets'
p42
(lp43
F0.0
aF0.0
aF0.0
aF528.4166157594099
aF0.0
aF0.0
aF0.0
aF0.0
aF0.0
aF0.0
aF0.0
aF0.0
aF0.0
aF0.0
aF38.99770251500132
aF7.008785722029306
aF0.0
asS'MC_exp_err_Top'
p44
(lp45
F1.894369111842695
aF1.3225189132056179
aF0.3205954271917488
aF6.109283255931924
aF1.1206875137456398
aF0.13434661588024677
aF0.19724323185808482
aF0.9307805116364136
aF0.1336864429000445
aF0.46437168312881144
aF1.1537040278794866
aF0.5438687852504143
aF0.8174337323819484
aF1.3890578732149068
aF3.0829432750915466
aF3.741815476427477
aF0.437359877404872
asS'Fitted_err_Zjets'
p46
(lp47
F0.048634146926476454
aF0.38396208412543487
aF0.08618759964952871
aF6.52288323309971
aF0.7763142705604197
aF0.10055038674058804
aF0.08560760270590316
aF0.00786304548681068
aF0.10176678164894044
aF0.0767410824065605
aF0.010695313991116784
aF0.9846662280213376
aF0.3405394308433605
aF0.025639408145153735
aF0.7703059015079449
aF5.962582910277131
aF0.32330109505989973
asS'MC_exp_events_Diboson'
p48
(lp49
F0.7324029207229614
aF4.095770835876465
aF0.0
aF7.720826625823975
aF0.16091717779636383
aF0.21498489379882812
aF0.45670807361602783
aF0.08346332609653473
aF0.21498489379882812
aF0.8231026530265808
aF0.08346332609653473
aF0.7525792121887207
aF2.3041470050811768
aF0.46308276057243347
aF1.4687800407409668
aF4.06353759765625
aF0.5283594131469727
asS'MC_exp_events_Zjets'
p50
(lp51
F0.11508643627166748
aF0.5541403889656067
aF0.04956693947315216
aF27.784257888793945
aF1.0260542631149292
aF0.4934719502925873
aF0.04592190310359001
aF0.018007975071668625
aF0.638323962688446
aF0.06821650266647339
aF0.024676304310560226
aF5.51035213470459
aF0.26675236225128174
aF0.059609346091747284
aF4.166207313537598
aF20.866735458374023
aF2.534015417098999
asS'MC_exp_events_GAMMAjets'
p52
(lp53
F0.0
aF0.0
aF136.643798828125
aF0.0
aF26.08466911315918
aF0.0
aF0.0
aF0.0
aF0.0
aF0.0
aF0.0
aF0.0
aF0.0
aF0.0
aF0.0
aF0.0
aF0.0
asS'TOTAL_FITTED_bkg_events_err'
p54
(lp55
F5.641260006976118
aF7.625811247721329
aF11.3548202611714
aF25.965487206038635
aF31.943633239570293
aF0.19069916359727224
aF1.0307436731196569
aF0.857426580643156
aF0.18841006326324444
aF1.292221227085629
aF1.1269645674607496
aF1.1606076962624774
aF4.760595980782959
aF2.452824171755944
aF39.0293511777067
aF11.75291629630128
aF0.8081455022264933
asS'MC_exp_err_GAMMAjets'
p56
(lp57
F0.0
aF0.0
aF5.580059259600588
aF0.0
aF2.8488199186334455
aF0.0
aF0.0
aF0.0
aF0.0
aF0.0
aF0.0
aF0.0
aF0.0
aF0.0
aF0.0
aF0.0
aF0.0
asS'nobs'
p58
(lp59
F32.0
aF58.0
aF129.0
aF674.0
aF1020.0
aF0.0
aF7.0
aF1.0
aF0.0
aF9.0
aF3.0
aF6.0
aF33.0
aF12.0
aF71.0
aF76.0
aF8.0
asS'Fitted_err_Wjets'
p60
(lp61
F1.6269780477326463
aF8.108003276197008
aF0.2955793302849643
aF9.79098931513358
aF2.5853898825961736
aF0.0
aF0.9881570218823689
aF0.2544415885417232
aF0.0
aF1.203426536176485
aF0.20821506892031358
aF0.0
aF4.827061339801081
aF0.9118991635635856
aF1.3921507084235316
aF6.445582744451677
aF0.6066143902325859
asS'Fitted_events_Zjets'
p62
(lp63
F0.0957599969119421
aF0.45771852998098345
aF0.040625624883662614
aF23.027063307619976
aF0.8460086668557746
aF0.4093117940747644
aF0.03760842766634485
aF0.01498585677186145
aF0.5297444368706652
aF0.056153845473998945
aF0.020531069255006723
aF4.568833806293341
aF0.21943190099901855
aF0.04960188602071684
aF3.456491166353389
aF17.280693674770106
aF2.1021940723869807
asS'MC_exp_events_Multijets'
p64
(lp65
F0.0
aF0.0
aF0.0
aF332.23114013671875
aF0.0
aF0.0
aF0.0
aF0.0
aF0.0
aF0.0
aF0.0
aF0.0
aF0.0
aF0.0
aF24.521055221557617
aF4.406998634338379
aF0.0
asS'MC_exp_err_Zjets'
p66
(lp67
F0.057916760151925595
aF0.46539687804107915
aF0.10528044162520585
aF7.349841668317582
aF0.9427717393111056
aF0.10883675566804457
aF0.10454688592863477
aF0.009368053124933117
aF0.1000987048780076
aF0.0935409800976133
aF0.012743545257050085
aF1.0314117836672383
aF0.4152237900422434
aF0.03054616756834119
aF0.8095210006929239
aF6.9103989463681605
aF0.2709809237139652
asS'Fitted_events_Wjets'
p68
(lp69
F9.160545010493927
aF49.09875242209487
aF0.3399976533343918
aF42.528764916687884
aF3.5666498711840333
aF0.0
aF3.9085732452616844
aF0.7326738398981969
aF0.0
aF4.962708618398352
aF0.9772156068875738
aF0.0
aF28.209392889818446
aF5.149292636824099
aF7.009474711467747
aF18.316055274405315
aF1.4253402619175828
asS'MC_exp_err_Diboson'
p70
(lp71
F0.3366495749906443
aF0.5926349597510558
aF0.0
aF0.42000288133107777
aF0.06845761707840542
aF0.12066158430171968
aF0.24497806220054122
aF0.06463804500318235
aF0.11962046878593703
aF0.4479306132855667
aF0.22530024196238957
aF0.3967363717931398
aF1.1833651514925663
aF0.27275710605468545
aF0.7389663012047428
aF2.072212063775831
aF0.3057473458705702
asS'TOTAL_MC_EXP_BKG_events'
p72
(lp73
F45.53935623168945
aF66.20243102312088
aF151.516447737813
aF529.1713213920593
aF963.2597949653864
aF0.7141813030466437
aF5.31269995495677
aF4.147150631994009
aF0.8606030712835491
aF6.87257781624794
aF5.983163353055716
aF7.083781898021698
aF37.745455384254456
aF19.321153543889523
aF58.77792263031006
aF69.66978168487549
aF4.866501793265343
asS'Fitted_events_Diboson'
p74
(lp75
F0.7340141501343048
aF4.099195607365015
aF0.0
aF7.722909085813807
aF0.16011322442383977
aF0.2150175504696949
aF0.4574969187657591
aF0.08345845606321575
aF0.2150175504696949
aF0.8237383837782893
aF0.08515381346730633
aF0.7519055017715651
aF2.306389343314784
aF0.4632346822481097
aF1.4693010905433859
aF4.063915315972188
aF0.5293082744537567
asS'MC_exp_err_Multijets'
p76
(lp77
F0.0
aF0.0
aF0.0
aF4.838203342131312
aF0.0
aF0.0
aF0.0
aF0.0
aF0.0
aF0.0
aF0.0
aF0.0
aF0.0
aF0.0
aF24.404603779000073
aF4.386716842847063
aF0.0
as.