(dp0
S'Fitted_err_Top'
p1
(lp2
F0.9382257126296606
asS'Fitted_err_Multijets'
p3
(lp4
F0.0
asS'MC_exp_err_Wjets'
p5
(lp6
F0.8525869185414366
asS'Fitted_events_GAMMAjets'
p7
(lp8
F0.0
asS'names'
p9
(lp10
S'SR_cuts'
p11
asS'TOTAL_MC_EXP_BKG_err'
p12
(lp13
F7.001151947192224
asS'Fitted_err_GAMMAjets'
p14
(lp15
F0.0
asS'TOTAL_FITTED_bkg_events'
p16
(lp17
F55.92618793699023
asS'MC_exp_events_Wjets'
p18
(lp19
F14.85000991821289
asS'Fitted_events_Top'
p20
(lp21
F2.3532865420566456
asS'Fitted_err_Diboson'
p22
(lp23
F1.8098722826581737
asS'MC_exp_events_Top'
p24
(lp25
F2.228468894958496
asS'Fitted_events_Multijets'
p26
(lp27
F0.0
asS'MC_exp_err_Top'
p28
(lp29
F0.37992973056385443
asS'Fitted_err_Zjets'
p30
(lp31
F6.127094808555646
asS'MC_exp_events_Diboson'
p32
(lp33
F3.5782763957977295
asS'MC_exp_events_Zjets'
p34
(lp35
F41.562076568603516
asS'MC_exp_events_GAMMAjets'
p36
(lp37
F0.0
asS'TOTAL_FITTED_bkg_events_err'
p38
(lp39
F6.639234616934663
asS'MC_exp_err_GAMMAjets'
p40
(lp41
F0.0
asS'nobs'
p42
(lp43
F67.0
asS'Fitted_err_Wjets'
p44
(lp45
F1.5991839315899907
asS'Fitted_events_Zjets'
p46
(lp47
F37.21872258821896
asS'MC_exp_events_Multijets'
p48
(lp49
F0.0
asS'MC_exp_err_Zjets'
p50
(lp51
F6.67108898475508
asS'Fitted_events_Wjets'
p52
(lp53
F12.77536170501124
asS'MC_exp_err_Diboson'
p54
(lp55
F1.8098450893890954
asS'TOTAL_MC_EXP_BKG_events'
p56
(lp57
F62.21883177757263
asS'Fitted_events_Diboson'
p58
(lp59
F3.578817101703388
asS'MC_exp_err_Multijets'
p60
(lp61
F0.0
as.