(dp0
S'Fitted_err_Top'
p1
(lp2
F6.102199641114504
aF1.635759789938528
aF0.22667460563156958
aF17.805887671776652
aF1.2428835485931817
aF0.27178949854716355
aF0.8494195673148791
asS'Fitted_err_Multijets'
p3
(lp4
F0.0
aF0.0
aF0.0
aF31.157331006000376
aF0.0
aF0.0
aF0.547300857446291
asS'MC_exp_err_Wjets'
p5
(lp6
F0.540661925389729
aF1.1769936220351955
aF0.32193127629981444
aF6.610114199392708
aF2.7918252510357298
aF0.0
aF0.348571545428725
asS'Fitted_events_GAMMAjets'
p7
(lp8
F0.0
aF0.0
aF113.42933073204036
aF0.0
aF21.608015553172713
aF0.0
aF0.0
asS'names'
p9
(lp10
S'CRT_cuts'
p11
aS'CRW_cuts'
p12
aS'CRY_cuts'
p13
aS'CRQ_cuts'
p14
aS'CRYQ_cuts'
p15
aS'VRZ_cuts'
p16
aS'SR_cuts'
p17
asS'TOTAL_MC_EXP_BKG_err'
p18
(lp19
F2.313298440685972
aF1.9994663726973758
aF6.205044747118516
aF13.801583203304627
aF56.98863505180952
aF0.6085077351020494
aF1.886217750631542
asS'Fitted_err_GAMMAjets'
p20
(lp21
F0.0
aF0.0
aF11.45613438755278
aF0.0
aF3.416428017167766
aF0.0
aF0.0
asS'TOTAL_FITTED_bkg_events'
p22
(lp23
F31.871930491742784
aF58.027609367409376
aF128.98029406021948
aF624.9361960620334
aF1020.00747800571
aF2.726302919571555
aF19.947385389950544
asS'MC_exp_events_Wjets'
p24
(lp25
F10.177908897399902
aF54.55619812011719
aF0.37901371717453003
aF38.08667755126953
aF3.9797754287719727
aF0.0
aF6.563492774963379
asS'Fitted_events_Top'
p26
(lp27
F21.90039999452579
aF4.438984242866381
aF0.4376689110001554
aF59.979978598623134
aF3.8393310254136113
aF0.35348926286352106
aF2.2826162094948024
asS'Fitted_err_Diboson'
p28
(lp29
F0.3339756461660167
aF0.58855378071254
aF0.0
aF0.6879757554375395
aF0.06765574739686418
aF0.2541491835815727
aF0.8846145354841088
asS'MC_exp_events_Top'
p30
(lp31
F34.51395797729492
aF6.996321678161621
aF0.6896622776985168
aF94.53470611572266
aF6.057939529418945
aF0.5560388565063477
aF3.5983362197875977
asS'Fitted_events_Multijets'
p32
(lp33
F0.0
aF0.0
aF0.0
aF506.00967546436226
aF0.0
aF0.0
aF0.5487426790755702
asS'MC_exp_err_Top'
p34
(lp35
F1.894369111842695
aF1.3225189132056179
aF0.3205954271917488
aF5.992822377297254
aF1.1206875137456398
aF0.39527343704624673
aF0.7634340196705426
asS'Fitted_err_Zjets'
p36
(lp37
F0.0492484061973224
aF0.39021521794699005
aF0.08766328900312599
aF6.904855108729279
aF0.7884024736511465
aF0.33006311764151636
aF1.4331184500641283
asS'MC_exp_events_Diboson'
p38
(lp39
F0.7324029207229614
aF4.095770835876465
aF0.0
aF6.232929229736328
aF0.16091717779636383
aF0.4713597595691681
aF1.7452378273010254
asS'MC_exp_events_Zjets'
p40
(lp41
F0.11508643627166748
aF0.5541403889656067
aF0.04956693947315216
aF22.230735778808594
aF1.0260542631149292
aF2.2903878688812256
aF11.406917572021484
asS'MC_exp_events_GAMMAjets'
p42
(lp43
F0.0
aF0.0
aF136.643798828125
aF0.0
aF26.08466911315918
aF0.0
aF0.0
asS'TOTAL_FITTED_bkg_events_err'
p44
(lp45
F5.643514719173412
aF7.620975658049817
aF11.356662128162363
aF25.00352252803007
aF31.93938247461413
aF0.5338079734877145
aF2.1568126374980334
asS'MC_exp_err_GAMMAjets'
p46
(lp47
F0.0
aF0.0
aF5.580059259600588
aF0.0
aF2.8488199186334455
aF0.0
aF0.0
asS'nobs'
p48
(lp49
F32.0
aF58.0
aF129.0
aF625.0
aF1020.0
aF2.0
aF29.0
asS'Fitted_err_Wjets'
p50
(lp51
F1.6265316812933523
aF8.10838524704421
aF0.2954815110419509
aF8.420372848503073
aF2.5837718222099944
aF0.0
aF1.0265625714601059
asS'Fitted_events_Zjets'
p52
(lp53
F0.09505047981608059
aF0.4630839071810559
aF0.04194617702499009
aF18.51426568767521
aF0.8579791113123147
aF1.9011323395393418
aF9.47118272845961
asS'MC_exp_events_Multijets'
p54
(lp55
F0.0
aF0.0
aF0.0
aF312.5679931640625
aF0.0
aF0.0
aF0.33899998664855957
asS'MC_exp_err_Zjets'
p56
(lp57
F0.057916760151925595
aF0.46539687804107915
aF0.10528044162520585
aF7.943583387273958
aF0.9427717393111056
aF0.3060436554527745
aF1.1778122308953831
asS'Fitted_events_Wjets'
p58
(lp59
F9.145380411501364
aF49.027349083103246
aF0.3394755727200229
aF34.203771335344015
aF3.5609860869243373
aF0.0
aF5.89994444816964
asS'MC_exp_err_Diboson'
p60
(lp61
F0.3366495749906443
aF0.5926349597510558
aF0.0
aF0.6929358576146235
aF0.06845761707840542
aF0.25416591914524717
aF0.8848984593090586
asS'TOTAL_MC_EXP_BKG_events'
p62
(lp63
F45.53935623168945
aF66.20243102312088
aF151.516447737813
aF473.6530418395996
aF963.2597949653864
aF3.3177864849567413
aF23.652984380722046
asS'Fitted_events_Diboson'
p64
(lp65
F0.7310996058995463
aF4.0981921342586904
aF0.0
aF6.228504976028868
aF0.16073000529759834
aF0.4716813171686921
aF1.744899324750922
asS'MC_exp_err_Multijets'
p66
(lp67
F0.0
aF0.0
aF0.0
aF4.862618682265998
aF0.0
aF0.0
aF0.33740384577748284
as.