(dp0
S'Fitted_err_Top'
p1
(lp2
F8.481963935646819
aF2.579340451387866
aF0.8330670677167095
aF178.92946071592627
aF8.209661772389559
aF0.06137428148963089
aF0.2746487320717646
aF0.4059502548511544
aF3.6638783505542576
aF2.5735485143254113
aF8.838951346630695
aF1.1181216734821067
aF4.882061521737975
aF2.2076466995974453
aF0.4593826199253112
asS'Fitted_err_Multijets'
p3
(lp4
F0.0
aF0.0
aF0.0
aF198.67769724850405
aF0.0
aF0.0
aF0.0
aF0.0
aF0.0
aF0.0
aF0.0
aF0.0
aF0.0
aF3.72088008427158
aF0.14914749729798377
asS'MC_exp_err_Wjets'
p5
(lp6
F1.9258779845419371
aF2.918284190974682
aF4.2923905025891536
aF56.82229880150442
aF19.77894441106329
aF0.0
aF0.20856855983108863
aF0.16553331178414593
aF0.009516806528791099
aF2.918284190974682
aF1.9258779845419371
aF0.2806255968507867
aF3.247232771324323
aF1.0560362645722843
aF0.2743227466849485
asS'Fitted_events_GAMMAjets'
p7
(lp8
F0.0
aF0.0
aF1096.8535003180402
aF0.0
aF305.13910694194385
aF0.0
aF0.0
aF0.0
aF0.0
aF0.0
aF0.0
aF0.0
aF0.0
aF0.0
aF0.0
asS'names'
p9
(lp10
S'CRT_cuts'
p11
aS'CRW_cuts'
p12
aS'CRY_cuts'
p13
aS'CRQ_cuts'
p14
aS'CRYQ_cuts'
p15
aS'VRZ_cuts'
p16
aS'VRW_cuts'
p17
aS'VRT_cuts'
p18
aS'VRZa_cuts'
p19
aS'VRWa_cuts'
p20
aS'VRTa_cuts'
p21
aS'VRZc_cuts'
p22
aS'VRZca_cuts'
p23
aS'VRQc_cuts'
p24
aS'SR_cuts'
p25
asS'TOTAL_MC_EXP_BKG_err'
p26
(lp27
F3.2713353114580794
aF3.3483567469227555
aF19.173356259751888
aF131.99394796458049
aF24.51220447087755
aF0.24396119138909153
aF0.5222124631091887
aF0.5288050551906027
aF8.452528309071646
aF5.585701640149929
aF3.3991152200886683
aF1.544007789566935
aF22.459460195087445
aF3.6425860041166644
aF0.9857342985931659
asS'Fitted_err_GAMMAjets'
p28
(lp29
F0.0
aF0.0
aF36.686194331867
aF0.0
aF13.344814851369597
aF0.0
aF0.0
aF0.0
aF0.0
aF0.0
aF0.0
aF0.0
aF0.0
aF0.0
aF0.0
asS'TOTAL_FITTED_bkg_events'
p30
(lp31
F61.9972276411659
aF133.00250969316542
aF1311.9992302823064
aF9144.655928333674
aF14299.981820566065
aF0.46142939154594464
aF1.9650375998540182
aF0.9061242553442963
aF88.3160015480398
aF133.00251125764595
aF61.99723593527881
aF10.566726147700258
aF225.5616817605205
aF23.387063924262197
aF5.776402986236101
asS'MC_exp_events_Wjets'
p32
(lp33
F16.00311851501465
aF138.91357421875
aF5.167868614196777
aF519.6614990234375
aF54.87229537963867
aF0.0
aF1.4091256856918335
aF0.29670703411102295
aF0.01789211854338646
aF138.91357421875
aF16.00311851501465
aF3.8372135162353516
aF84.93751525878906
aF5.478658199310303
aF2.0156421661376953
asS'Fitted_events_Top'
p34
(lp35
F47.3864634958893
aF13.179959928459935
aF3.6084114925744513
aF796.5626674494641
aF38.56151710234953
aF0.012498031694603368
aF0.5255024477011461
aF0.670722664879625
aF10.857162210219462
aF13.17996008349303
aF47.386469835345004
aF3.015264752429428
aF21.140551033536475
aF10.39042540059007
aF1.6810904043820498
asS'Fitted_err_Diboson'
p36
(lp37
F0.35984374564364313
aF1.0244948251971846
aF0.05523436138787861
aF3.325969371774666
aF0.7482678384846204
aF0.0542851082080744
aF0.19002049013859307
aF0.0
aF4.646825475783979
aF4.586134548463086
aF0.9908458633111283
aF0.4832568591207724
aF7.124373195810876
aF0.7904147962548898
aF0.4199185821956969
asS'MC_exp_events_Top'
p38
(lp39
F56.8682975769043
aF15.816727638244629
aF4.330883979797363
aF955.9798583984375
aF46.27639389038086
aF0.014995496720075607
aF0.6307463645935059
aF0.8051820993423462
aF13.031888961791992
aF15.816727638244629
aF56.8682975769043
aF3.6184139251708984
aF25.37229347229004
aF12.470234870910645
aF2.017554521560669
asS'Fitted_events_Multijets'
p40
(lp41
F0.0
aF0.0
aF0.0
aF7631.177846628522
aF0.0
aF0.0
aF0.0
aF0.0
aF0.0
aF0.0
aF0.0
aF0.0
aF0.0
aF3.734043610536772
aF0.1493617645115332
asS'MC_exp_err_Top'
p42
(lp43
F1.9488163125352869
aF0.7535092884683445
aF0.6293460940221861
aF114.030256258753
aF4.4099782917836485
aF0.07448937949433652
aF0.31135161202505196
aF0.4747788164053484
aF3.6724283500363177
aF0.7535092884683445
aF1.9488163125352869
aF1.1406388008066077
aF3.482763350504789
aF1.4351471159892166
aF0.3848923965802667
asS'Fitted_err_Zjets'
p44
(lp45
F0.2461395091478294
aF0.1759314055012642
aF1.4247110118302904
aF16.88027983307963
aF7.790861115928946
aF0.1845016320438452
aF0.004751335190344383
aF0.0004629148760113461
aF5.427000396743793
aF0.18527182884474633
aF0.24621739849134214
aF0.6258664779185654
aF17.2086670468356
aF0.3573578774725376
aF0.4954413870149515
asS'MC_exp_events_Diboson'
p46
(lp47
F1.8463932275772095
aF8.940581321716309
aF0.5941720008850098
aF47.70083999633789
aF5.496519565582275
aF0.1029229387640953
aF0.3159599006175995
aF0.0
aF9.2428560256958
aF8.940581321716309
aF1.8463932275772095
aF0.9292898774147034
aF13.92098331451416
aF1.4590229988098145
aF0.634344756603241
asS'MC_exp_events_Zjets'
p48
(lp49
F0.12860345840454102
aF1.207002878189087
aF0.6908139586448669
aF316.5199279785156
aF18.623363494873047
aF0.4243076741695404
aF0.010776287876069546
aF0.0008997875265777111
aF83.63227081298828
aF1.207002878189087
aF0.12860345840454102
aF4.398000717163086
aF151.19924926757812
aF4.25469446182251
aF2.105665922164917
asS'MC_exp_events_GAMMAjets'
p50
(lp51
F0.0
aF0.0
aF1345.0137939453125
aF0.0
aF374.1768493652344
aF0.0
aF0.0
aF0.0
aF0.0
aF0.0
aF0.0
aF0.0
aF0.0
aF0.0
aF0.0
asS'TOTAL_FITTED_bkg_events_err'
p52
(lp53
F7.876896634789027
aF11.533643679760488
aF36.22182027935174
aF95.64469979713044
aF119.58336008512183
aF0.2025527226861064
aF0.4608069820673341
aF0.44069652795218356
aF8.010569473605749
aF12.73993190729182
aF8.410657900451893
aF1.421518502432722
aF20.365863651195628
aF4.489384674567887
aF0.8934467794527765
asS'MC_exp_err_GAMMAjets'
p54
(lp55
F0.0
aF0.0
aF16.07074217590679
aF0.0
aF9.14320038291552
aF0.0
aF0.0
aF0.0
aF0.0
aF0.0
aF0.0
aF0.0
aF0.0
aF0.0
aF0.0
asS'nobs'
p56
(lp57
F62.0
aF133.0
aF1312.0
aF9145.0
aF14300.0
aF0.0
aF3.0
aF0.0
aF76.0
aF133.0
aF62.0
aF7.0
aF265.0
aF10.0
aF6.0
asS'Fitted_err_Wjets'
p58
(lp59
F2.241550874268908
aF12.21991681293015
aF3.3430054134380525
aF69.42438535530606
aF15.613212633022066
aF0.0
aF0.2043456974252401
aF0.13665331777745623
aF0.007902216368455341
aF12.540028886204153
aF2.2301437467246052
aF0.41328484280557437
aF7.86221479725001
aF1.0263896605623495
aF0.29747377902052985
asS'Fitted_events_Zjets'
p60
(lp61
F0.10488979581979507
aF0.9842912516752046
aF0.563434928102221
aF258.1227611120987
aF15.187789549908288
aF0.346008421087246
aF0.00878761643553578
aF0.0007337125319957756
aF68.20190396487709
aF0.9842912632532155
aF0.1048898098521614
aF3.5864662314174183
aF123.30339445169747
aF3.469701803863629
aF1.7171217552567357
asS'MC_exp_events_Multijets'
p62
(lp63
F0.0
aF0.0
aF0.0
aF5773.3857421875
aF0.0
aF0.0
aF0.0
aF0.0
aF0.0
aF0.0
aF0.0
aF0.0
aF0.0
aF2.8249995708465576
aF0.11299999803304672
asS'MC_exp_err_Zjets'
p64
(lp65
F0.3035531303447674
aF0.21091716949956188
aF1.7570527237852107
aF17.681891018219382
aF9.60331091734542
aF0.22629472991420332
aF0.00582972630436345
aF0.0005683039460198235
aF5.980809081350204
aF0.22261484214792215
aF0.3036479452874072
aF0.7496419864420127
aF20.630038548413868
aF0.41124702955631
aF0.6030740112633444
asS'Fitted_events_Wjets'
p66
(lp67
F12.659527836946584
aF109.89783179134777
aF4.090254006200803
aF411.0923316967334
aF43.418483399794496
aF0.0
aF1.1147960407057735
aF0.23466787793267568
aF0.014150648243767631
aF109.89783308405283
aF12.659529530563496
aF3.035710807393027
aF67.1968811501856
aF4.333925020805403
aF1.5945192597188014
asS'MC_exp_err_Diboson'
p68
(lp69
F0.3622640766070345
aF1.0313580347971991
aF0.05562599845010424
aF3.348744453814496
aF0.7534057310307493
aF0.0542851082080744
aF0.19035034081961635
aF0.0
aF4.647170689139252
aF4.5877225274090385
aF0.9917294232353366
aF0.4834599644614456
aF7.126657511593176
aF0.7911430326222946
aF0.42109795258377186
asS'TOTAL_MC_EXP_BKG_events'
p70
(lp71
F74.8464127779007
aF164.87788605690002
aF1556.148744046688
aF7613.2478675842285
aF13991.72374200821
aF0.5422261096537113
aF2.3666082387790084
aF1.1027889209799469
aF105.92490791901946
aF164.87788605690002
aF74.8464127779007
aF12.78291803598404
aF275.4300413131714
aF26.48761010169983
aF6.886207364499569
asS'Fitted_events_Diboson'
p72
(lp73
F1.846346512510223
aF8.940426721682526
aF0.5941708180087414
aF47.70032144685546
aF5.496422422776903
aF0.1029229387640953
aF0.31595149501156283
aF0.0
aF9.242784724699474
aF8.940426826846883
aF1.846346759518146
aF0.9292843564603849
aF13.920855125100939
aF1.4589680884663208
aF0.6343098023669806
asS'MC_exp_err_Multijets'
p74
(lp75
F0.0
aF0.0
aF0.0
aF0.5773385742186292
aF0.0
aF0.0
aF0.0
aF0.0
aF0.0
aF0.0
aF0.0
aF0.0
aF0.0
aF2.814079714634015
aF0.11279953579998818
as.