(dp0
S'Fitted_err_Top'
p1
(lp2
F5.811226365577581
aF3.64201063085697
aF0.4509244627730383
aF51.07576528611458
aF5.013953260185851
aF0.05618915017099783
aF0.4347076898579954
asS'Fitted_err_Multijets'
p3
(lp4
F0.0
aF0.0
aF0.0
aF54.36771017909539
aF0.0
aF0.0
aF0.0
asS'MC_exp_err_Wjets'
p5
(lp6
F1.20232975026497
aF1.9145391762634953
aF1.297722403209052
aF10.754489854015882
aF10.897615581242153
aF0.0007363179912838947
aF0.20344117485100835
asS'Fitted_events_GAMMAjets'
p7
(lp8
F0.0
aF0.0
aF614.7489398171165
aF0.0
aF98.90943701509262
aF0.0
aF0.0
asS'names'
p9
(lp10
S'CRT_cuts'
p11
aS'CRW_cuts'
p12
aS'CRY_cuts'
p13
aS'CRQ_cuts'
p14
aS'CRYQ_cuts'
p15
aS'VRZ_cuts'
p16
aS'SR_cuts'
p17
asS'TOTAL_MC_EXP_BKG_err'
p18
(lp19
F1.8523473830469264
aF2.3168962179133086
aF9.911295495488996
aF17.164457505654195
aF58.05432585143304
aF0.5232958512802943
aF1.9008796986716987
asS'Fitted_err_GAMMAjets'
p20
(lp21
F0.0
aF0.0
aF26.76993905187692
aF0.0
aF5.448464923603162
aF0.0
aF0.0
asS'TOTAL_FITTED_bkg_events'
p22
(lp23
F27.98916761307542
aF121.31564890781769
aF705.8871517788509
aF584.8667871000207
aF4597.4351957665385
aF3.703618204536128
aF26.695720840398316
asS'MC_exp_events_Wjets'
p24
(lp25
F11.244302749633789
aF120.96348571777344
aF2.9660348892211914
aF159.85800170898438
aF14.209436416625977
aF0.0014546196907758713
aF7.110718727111816
asS'Fitted_events_Top'
p26
(lp27
F16.883705088455773
aF9.59384311338739
aF0.6276956708016629
aF140.08413605228864
aF13.651121627213593
aF0.022797921913349135
aF1.1619459492887512
asS'Fitted_err_Diboson'
p28
(lp29
F0.07875777241879418
aF0.228214552128902
aF0.0701244490987123
aF0.46780201229416
aF0.14824814116034887
aF0.26786379213522493
aF0.8910009182590531
asS'MC_exp_events_Top'
p30
(lp31
F15.954591751098633
aF9.073745727539062
aF0.5940890312194824
aF132.4566650390625
aF12.907842636108398
aF0.02152446284890175
aF1.0988225936889648
asS'Fitted_events_Multijets'
p32
(lp33
F0.0
aF0.0
aF0.0
aF212.35690095186408
aF0.0
aF0.0
aF0.0
asS'MC_exp_err_Top'
p34
(lp35
F1.044993790248045
aF0.7837475718924604
aF0.36558362796158844
aF9.349735248500949
aF0.9703060428853972
aF0.053018706987953766
aF0.11916858273244564
asS'Fitted_err_Zjets'
p36
(lp37
F0.039336574813935606
aF0.46503857952546884
aF1.125373375321422
aF5.65475898403404
aF4.41071485190129
aF0.39536034645472584
aF1.6184459040595018
asS'MC_exp_events_Diboson'
p38
(lp39
F1.3223209381103516
aF6.5993523597717285
aF0.24331003427505493
aF15.244766235351562
aF1.4152469635009766
aF0.4764966368675232
aF1.7731860876083374
asS'MC_exp_events_Zjets'
p40
(lp41
F0.08764626830816269
aF1.044566035270691
aF0.300323486328125
aF88.97205352783203
aF7.23618745803833
aF3.576556921005249
aF19.68738555908203
asS'MC_exp_events_GAMMAjets'
p42
(lp43
F0.0
aF0.0
aF686.011962890625
aF0.0
aF110.42313385009766
aF0.0
aF0.0
asS'TOTAL_FITTED_bkg_events_err'
p44
(lp45
F5.292734813877738
aF11.020644075354802
aF26.568124731687906
aF24.1927416708501
aF67.80827533817262
aF0.5021799789148909
aF2.0246687510155787
asS'MC_exp_err_GAMMAjets'
p46
(lp47
F0.0
aF0.0
aF8.613659639304634
aF0.0
aF3.2981824784373965
aF0.0
aF0.0
asS'nobs'
p48
(lp49
F28.0
aF121.0
aF706.0
aF585.0
aF4597.0
aF5.0
aF32.0
asS'Fitted_err_Wjets'
p50
(lp51
F1.6323045573899568
aF12.188938407763857
aF1.102385161912206
aF17.670989827522618
aF9.063333648590834
aF0.000649214560153984
aF0.7637352380608267
asS'Fitted_events_Zjets'
p52
(lp53
F0.07903538362447853
aF0.941791893813681
aF0.25527872371759125
aF79.66025845038955
aF6.43062025074565
aF3.202063745234684
aF17.63329257520265
asS'MC_exp_events_Multijets'
p54
(lp55
F0.0
aF0.0
aF0.0
aF241.3738555908203
aF0.0
aF0.0
aF0.0
asS'MC_exp_err_Zjets'
p56
(lp57
F0.04422412301976464
aF0.5230078554828628
aF1.276116821888809
aF5.016423954116853
aF4.997472403345005
aF0.41811145428117047
aF1.5960408191122097
asS'Fitted_events_Wjets'
p58
(lp59
F9.70449728292834
aF104.18068620666963
aF2.536755517737153
aF137.5191342911917
aF12.0586213960128
aF0.0012645704685885035
aF6.127323531906506
asS'MC_exp_err_Diboson'
p60
(lp61
F0.07951656248480997
aF0.22961970583902094
aF0.07050284315032562
aF0.4707290768009818
aF0.14909547308082197
aF0.2676163259849654
aF0.8910625322177628
asS'TOTAL_MC_EXP_BKG_events'
p62
(lp63
F28.608861707150936
aF137.68114984035492
aF775.373578608036
aF637.9053421020508
aF4499.076612949371
aF4.07603264041245
aF29.67011296749115
asS'Fitted_events_Diboson'
p64
(lp65
F1.3219298580668286
aF6.59932769394697
aF0.24354114617573802
aF15.246357354286678
aF1.415298999078224
aF0.47749196691950657
aF1.7731587840004086
asS'MC_exp_err_Multijets'
p66
(lp67
F0.0
aF0.0
aF0.0
aF2.763001434705291
aF0.0
aF0.0
aF0.0
as.