(dp0
S'Fitted_err_Top'
p1
(lp2
F13.411868106814536
aF4.406229332651402
aF0.9122702645018264
aF45.7107750621749
aF3.2160492574594493
aF0.057661913581455816
aF0.7890759268732801
asS'Fitted_err_Multijets'
p3
(lp4
F0.0
aF0.0
aF0.0
aF73.51892833691886
aF0.0
aF0.0
aF0.0
asS'MC_exp_err_Wjets'
p5
(lp6
F0.9059960627905042
aF3.1790431720407994
aF0.3122506552040984
aF23.692791438863946
aF9.28235754318922
aF0.0
aF0.45327032040729104
asS'Fitted_events_GAMMAjets'
p7
(lp8
F0.0
aF0.0
aF809.1709061651957
aF0.0
aF171.538881907752
aF0.0
aF0.0
asS'names'
p9
(lp10
S'CRT_cuts'
p11
aS'CRW_cuts'
p12
aS'CRY_cuts'
p13
aS'CRQ_cuts'
p14
aS'CRYQ_cuts'
p15
aS'VRZ_cuts'
p16
aS'SR_cuts'
p17
asS'TOTAL_MC_EXP_BKG_err'
p18
(lp19
F5.616045902667503
aF5.374496990497344
aF13.127686756840507
aF46.55355407985406
aF284.942872102996
aF0.47456331972894883
aF1.8596590249506646
asS'Fitted_err_GAMMAjets'
p20
(lp21
F0.0
aF0.0
aF29.118783986048964
aF0.0
aF15.772263985695632
aF0.0
aF0.0
asS'TOTAL_FITTED_bkg_events'
p22
(lp23
F159.08946504163976
aF266.93928936446036
aF843.3343988440905
aF2296.4212208779622
aF7107.551119724549
aF2.292236724582255
aF14.992112650890988
asS'MC_exp_events_Wjets'
p24
(lp25
F39.554264068603516
aF239.99688720703125
aF2.2377336025238037
aF184.868408203125
aF17.614622116088867
aF0.0
aF4.137485504150391
asS'Fitted_events_Top'
p26
(lp27
F117.6295787149229
aF22.93702112316014
aF2.67893410088599
aF306.12030377652695
aF22.838670275755735
aF0.1606750777319572
aF2.1496860946994767
asS'Fitted_err_Diboson'
p28
(lp29
F0.3219970183993316
aF1.489491491024275
aF0.11952968669511516
aF0.4587719084424367
aF0.0757321726864144
aF0.19944756836842
aF0.5904724257784559
asS'MC_exp_events_Top'
p30
(lp31
F158.85169982910156
aF30.96444320678711
aF3.60707426071167
aF413.0075988769531
aF30.832225799560547
aF0.21702580153942108
aF2.897247076034546
asS'Fitted_events_Multijets'
p32
(lp33
F0.0
aF0.0
aF0.0
aF1707.906410639008
aF0.0
aF0.0
aF0.0
asS'MC_exp_err_Top'
p34
(lp35
F4.87796646631914
aF3.7895167269966716
aF1.1221129531494707
aF27.823185896902533
aF2.866245571772853
aF0.07887426874566836
aF0.9425576720608331
asS'Fitted_err_Zjets'
p36
(lp37
F0.22277289084163335
aF1.027442356936335
aF0.6798042536564706
aF29.709068776581045
aF4.203372769210875
aF0.4422580640753924
aF1.3104882099728028
asS'MC_exp_events_Diboson'
p38
(lp39
F3.5524115562438965
aF14.864588737487793
aF0.2461032271385193
aF19.853364944458008
aF1.0073426961898804
aF0.29701676964759827
aF1.083928108215332
asS'MC_exp_events_Zjets'
p40
(lp41
F0.426333487033844
aF1.8037534952163696
aF0.3506389856338501
aF83.21636199951172
aF4.370431900024414
aF1.7172565460205078
aF7.417096138000488
asS'MC_exp_events_GAMMAjets'
p42
(lp43
F0.0
aF0.0
aF762.0992431640625
aF0.0
aF161.55526733398438
aF0.0
aF0.0
asS'TOTAL_FITTED_bkg_events_err'
p44
(lp45
F12.617794681595006
aF16.338426945617783
aF29.043616360335058
aF47.98222427229184
aF84.3242570524517
aF0.49671347801629095
aF1.805134904552181
asS'MC_exp_err_GAMMAjets'
p46
(lp47
F0.0
aF0.0
aF12.532270776652965
aF0.0
aF13.326993181826507
aF0.0
aF0.0
asS'nobs'
p48
(lp49
F159.0
aF267.0
aF843.0
aF2297.0
aF7108.0
aF2.0
aF13.0
asS'Fitted_err_Wjets'
p50
(lp51
F3.1070011377002094
aF17.448066516995347
aF0.34274212993206343
aF26.63406904888998
aF8.972997476713536
aF0.0
aF0.5293849336516757
asS'Fitted_events_Zjets'
p52
(lp53
F0.4591592507514484
aF1.8843371213957003
aF0.3513275999775326
aF87.469998018242
aF4.505824835580639
aF1.833381339257095
aF7.843025073754668
asS'MC_exp_events_Multijets'
p54
(lp55
F0.0
aF0.0
aF0.0
aF1108.81005859375
aF0.0
aF0.0
aF0.0
asS'MC_exp_err_Zjets'
p56
(lp57
F0.21366572633883046
aF0.9885179850423895
aF0.6555689188095944
aF28.484814939136086
aF4.064124166044478
aF0.41600039730459903
aF1.2251937418306587
asS'Fitted_events_Wjets'
p58
(lp59
F37.45182269188531
aF227.27490207364733
aF2.120009487954866
aF175.07732194076473
aF16.703941580587074
aF0.0
aF3.9185251225005158
asS'MC_exp_err_Diboson'
p60
(lp61
F0.3247784614419147
aF1.4963354688005988
aF0.12025140342411668
aF0.4610836940242143
aF0.07624102919573258
aF0.19918278236227663
aF0.5925030068628308
asS'TOTAL_MC_EXP_BKG_events'
p62
(lp63
F202.38470894098282
aF287.6296726465225
aF794.1615226864815
aF1809.7557926177979
aF6352.151374220848
aF2.231299117207527
aF15.535756826400757
asS'Fitted_events_Diboson'
p64
(lp65
F3.548904384080117
aF14.843029046257204
aF0.24554743004763294
aF19.847186503420595
aF1.0075867128946552
aF0.2981803075932027
aF1.080876359936326
asS'MC_exp_err_Multijets'
p66
(lp67
F0.0
aF0.0
aF0.0
aF0.11088100585925531
aF0.0
aF0.0
aF0.0
as.