(dp0
S'Fitted_err_Top'
p1
(lp2
F13.411868106814536
aF4.406229332651402
aF0.9122702645018264
aF45.7107750621749
aF3.2160492574594493
aF0.057661913581455816
aF0.14685848852024128
aF0.5253507252338532
aF1.485643348064179
aF2.8979134076846145
aF9.173384511747434
aF1.4242264102664715
aF4.398624778287121
aF13.95113516766425
aF35.36442269607961
aF16.47447527172719
aF0.7890759268732801
asS'Fitted_err_Multijets'
p3
(lp4
F0.0
aF0.0
aF0.0
aF73.51892833691886
aF0.0
aF0.0
aF0.0
aF0.0
aF0.0
aF0.0
aF0.0
aF0.0
aF0.0
aF0.0
aF382.93882164470557
aF12.651309662111233
aF0.0
asS'MC_exp_err_Wjets'
p5
(lp6
F0.9059960627905042
aF3.1790431720407994
aF0.3122506552040984
aF23.692791438863946
aF9.28235754318922
aF0.0
aF0.8948143396973789
aF0.17442512404221977
aF0.0016342451157677544
aF2.7826357487932922
aF0.6788314023187182
aF0.005430836960854718
aF3.1790431720407994
aF0.9059960627905042
aF7.181254896125581
aF9.583544652471545
aF0.45327032040729104
asS'Fitted_events_GAMMAjets'
p7
(lp8
F0.0
aF0.0
aF809.1709061651957
aF0.0
aF171.538881907752
aF0.0
aF0.0
aF0.0
aF0.0
aF0.0
aF0.0
aF0.0
aF0.0
aF0.0
aF0.0
aF0.0
aF0.0
asS'names'
p9
(lp10
S'CRT_cuts'
p11
aS'CRW_cuts'
p12
aS'CRY_cuts'
p13
aS'CRQ_cuts'
p14
aS'CRYQ_cuts'
p15
aS'VRZ_cuts'
p16
aS'VRW_cuts'
p17
aS'VRT_cuts'
p18
aS'VRZa_cuts'
p19
aS'VRWa_cuts'
p20
aS'VRTa_cuts'
p21
aS'VRZb_cuts'
p22
aS'VRWb_cuts'
p23
aS'VRTb_cuts'
p24
aS'VRQa_cuts'
p25
aS'VRQb_cuts'
p26
aS'SR_cuts'
p27
asS'TOTAL_MC_EXP_BKG_err'
p28
(lp29
F5.616045902667503
aF5.374496990497344
aF13.127686756840507
aF46.55355407985406
aF284.942872102996
aF0.47456331972894883
aF0.9721371014265867
aF0.7322426548430453
aF4.9237032080620775
aF6.184315338235718
aF6.51276154070207
aF6.143678465455967
aF9.172542886837366
aF5.890289573060498
aF251.13936753339343
aF35.37379955125948
aF1.8596590249506646
asS'Fitted_err_GAMMAjets'
p30
(lp31
F0.0
aF0.0
aF29.118783986048964
aF0.0
aF15.772263985695632
aF0.0
aF0.0
aF0.0
aF0.0
aF0.0
aF0.0
aF0.0
aF0.0
aF0.0
aF0.0
aF0.0
aF0.0
asS'TOTAL_FITTED_bkg_events'
p32
(lp33
F159.08946504163976
aF266.93928936446036
aF843.3343988440905
aF2296.4212208779622
aF7107.551119724549
aF2.292236724582255
aF5.827237412102852
aF2.797457174671564
aF30.18177804779307
aF153.37209025042176
aF88.03301467439645
aF60.146153174757075
aF266.9494572204632
aF159.11225511283345
aF831.037100553172
aF324.7129635329877
aF14.992112650890988
asS'MC_exp_events_Wjets'
p34
(lp35
F39.554264068603516
aF239.99688720703125
aF2.2377336025238037
aF184.868408203125
aF17.614622116088867
aF0.0
aF5.365932464599609
aF0.9438085556030273
aF0.0026622528675943613
aF137.9053497314453
aF23.430776596069336
aF0.008796632289886475
aF239.99688720703125
aF39.554264068603516
aF157.04006958007812
aF108.53997039794922
aF4.137485504150391
asS'Fitted_events_Top'
p36
(lp37
F117.6295787149229
aF22.93702112316014
aF2.67893410088599
aF306.12030377652695
aF22.838670275755735
aF0.1606750777319572
aF0.30087330818389996
aF1.83210571478726
aF2.363230859549855
aF12.661180137103425
aF63.24861471929845
aF4.391003315223588
aF22.937894806192975
aF117.6464295257085
aF187.00829164647925
aF106.79607023879166
aF2.1496860946994767
asS'Fitted_err_Diboson'
p38
(lp39
F0.3219970183993316
aF1.489491491024275
aF0.11952968669511516
aF0.4587719084424367
aF0.0757321726864144
aF0.19944756836842
aF0.28451959849860786
aF0.03270529442156268
aF1.2957037185070028
aF4.545325288079846
aF1.1822606646761546
aF2.0891721832406507
aF7.5698253982517025
aF1.8037020769422771
aF9.82046189447932
aF6.772904081409669
aF0.5904724257784559
asS'MC_exp_events_Top'
p40
(lp41
F158.85169982910156
aF30.96444320678711
aF3.60707426071167
aF413.0075988769531
aF30.832225799560547
aF0.21702580153942108
aF0.40356799960136414
aF2.4718499183654785
aF3.1785926818847656
aF17.09652328491211
aF85.36807250976562
aF5.916076183319092
aF30.96444320678711
aF158.85169982910156
aF252.2336883544922
aF144.04617309570312
aF2.897247076034546
asS'Fitted_events_Multijets'
p42
(lp43
F0.0
aF0.0
aF0.0
aF1707.906410639008
aF0.0
aF0.0
aF0.0
aF0.0
aF0.0
aF0.0
aF0.0
aF0.0
aF0.0
aF0.0
aF384.67030356458037
aF12.705974902029274
aF0.0
asS'MC_exp_err_Top'
p44
(lp45
F4.87796646631914
aF3.7895167269966716
aF1.1221129531494707
aF27.823185896902533
aF2.866245571772853
aF0.07887426874566836
aF0.1861520449532119
aF0.6300618384163128
aF1.9290249922004101
aF2.8754743507947254
aF6.127402223438802
aF1.7219102904756474
aF3.7895167269966716
aF4.87796646631914
aF33.39845984030041
aF13.206043227771813
aF0.9425576720608331
asS'Fitted_err_Zjets'
p46
(lp47
F0.22277289084163335
aF1.027442356936335
aF0.6798042536564706
aF29.709068776581045
aF4.203372769210875
aF0.4422580640753924
aF0.02471817629571353
aF0.004856756931451081
aF4.589566256095365
aF0.5354461771155706
aF0.13238971700759214
aF6.074285620021141
aF1.0334813420418516
aF0.2244464774669713
aF7.780416228658015
aF28.71353778621683
aF1.3104882099728028
asS'MC_exp_events_Diboson'
p48
(lp49
F3.5524115562438965
aF14.864588737487793
aF0.2461032271385193
aF19.853364944458008
aF1.0073426961898804
aF0.29701676964759827
aF0.40221643447875977
aF0.06307486444711685
aF2.528484344482422
aF8.945073127746582
aF2.3299570083618164
aF4.097775936126709
aF14.864588737487793
aF3.5524115562438965
aF19.398725509643555
aF13.304211616516113
aF1.083928108215332
asS'MC_exp_events_Zjets'
p50
(lp51
F0.426333487033844
aF1.8037534952163696
aF0.3506389856338501
aF83.21636199951172
aF4.370431900024414
aF1.7172565460205078
aF0.04380039870738983
aF0.008728657849133015
aF23.94587516784668
aF1.1274217367172241
aF0.2505459785461426
aF48.788551330566406
aF1.8037534952163696
aF0.426333487033844
aF86.05886840820312
aF84.69198608398438
aF7.417096138000488
asS'MC_exp_events_GAMMAjets'
p52
(lp53
F0.0
aF0.0
aF762.0992431640625
aF0.0
aF161.55526733398438
aF0.0
aF0.0
aF0.0
aF0.0
aF0.0
aF0.0
aF0.0
aF0.0
aF0.0
aF0.0
aF0.0
aF0.0
asS'TOTAL_FITTED_bkg_events_err'
p54
(lp55
F12.617794681595006
aF16.338426945617783
aF29.043616360335058
aF47.98222427229184
aF84.3242570524517
aF0.49671347801629095
aF0.9941623183652314
aF0.6088440609539476
aF5.011382100948821
aF11.014273523660684
aF8.931572351794438
aF6.597692251395288
aF18.6147057816019
aF13.478922887088862
aF383.9338193268408
aF37.93920978665788
aF1.805134904552181
asS'MC_exp_err_GAMMAjets'
p56
(lp57
F0.0
aF0.0
aF12.532270776652965
aF0.0
aF13.326993181826507
aF0.0
aF0.0
aF0.0
aF0.0
aF0.0
aF0.0
aF0.0
aF0.0
aF0.0
aF0.0
aF0.0
aF0.0
asS'nobs'
p58
(lp59
F159.0
aF267.0
aF843.0
aF2297.0
aF7108.0
aF2.0
aF3.0
aF1.0
aF27.0
aF146.0
aF73.0
aF45.0
aF267.0
aF159.0
aF764.0
aF388.0
aF13.0
asS'Fitted_err_Wjets'
p60
(lp61
F3.1070011377002094
aF17.448066516995347
aF0.34274212993206343
aF26.63406904888998
aF8.972997476713536
aF0.0
aF0.9347230024755613
aF0.17725516720090784
aF0.0015528659187766737
aF10.602113924682842
aF1.8580390335855752
aF0.005190799518167761
aF18.053916919159388
aF3.0841534021983366
aF13.670608895986344
aF12.370381736125209
aF0.5293849336516757
asS'Fitted_events_Zjets'
p62
(lp63
F0.4591592507514484
aF1.8843371213957003
aF0.3513275999775326
aF87.469998018242
aF4.505824835580639
aF1.833381339257095
aF0.047120701961449366
aF0.009416220669040395
aF25.289263305769637
aF1.180232967919354
aF0.2699512672179778
aF51.652669962583694
aF1.8844088967741275
aF0.45922502677257676
aF91.24219745393688
aF89.10539623021069
aF7.843025073754668
asS'MC_exp_events_Multijets'
p64
(lp65
F0.0
aF0.0
aF0.0
aF1108.81005859375
aF0.0
aF0.0
aF0.0
aF0.0
aF0.0
aF0.0
aF0.0
aF0.0
aF0.0
aF0.0
aF249.73634338378906
aF8.248995780944824
aF0.0
asS'MC_exp_err_Zjets'
p66
(lp67
F0.21366572633883046
aF0.9885179850423895
aF0.6555689188095944
aF28.484814939136086
aF4.064124166044478
aF0.41600039730459903
aF0.023623078993141804
aF0.004637399776986835
aF4.3216588955102555
aF0.5149620532430975
aF0.12686962979972688
aF5.500242717821638
aF0.9942300202145254
aF0.2151412327167467
aF6.574706334346939
aF27.492495890827133
aF1.2251937418306587
asS'Fitted_events_Wjets'
p68
(lp69
F37.45182269188531
aF227.27490207364733
aF2.120009487954866
aF175.07732194076473
aF16.703941580587074
aF0.0
aF5.080181233646402
aF0.8928603747681471
aF0.0025113095950137256
aF130.59705501405614
aF22.186701936700246
aF0.008349442425778408
aF227.28355909256294
aF37.457187784446646
aF148.73548085899165
aF102.81925312680124
aF3.9185251225005158
asS'MC_exp_err_Diboson'
p70
(lp71
F0.3247784614419147
aF1.4963354688005988
aF0.12025140342411668
aF0.4610836940242143
aF0.07624102919573258
aF0.19918278236227663
aF0.2871864534092404
aF0.03270529442156268
aF1.2967303653005249
aF4.551912293908337
aF1.1836835576104499
aF2.0913012433697493
aF7.581425948913103
aF1.805654456215356
aF9.830393526531601
aF6.782599827308733
aF0.5925030068628308
asS'TOTAL_MC_EXP_BKG_events'
p72
(lp73
F202.38470894098282
aF287.6296726465225
aF794.1615226864815
aF1809.7557926177979
aF6352.151374220848
aF2.231299117207527
aF6.215517297387123
aF3.4874619962647557
aF29.65561444708146
aF165.07436788082123
aF111.37935209274292
aF58.81120008230209
aF287.6296726465225
aF202.38470894098282
aF764.467695236206
aF358.83133697509766
aF15.535756826400757
asS'Fitted_events_Diboson'
p74
(lp75
F3.548904384080117
aF14.843029046257204
aF0.24554743004763294
aF19.847186503420595
aF1.0075867128946552
aF0.2981803075932027
aF0.3990621683111004
aF0.06307486444711685
aF2.526772572878565
aF8.933622131342837
aF2.327746751179793
aF4.094130454524015
aF14.843594424933187
aF3.549412775905758
aF19.380827029183724
aF13.286269035154856
aF1.080876359936326
asS'MC_exp_err_Multijets'
p76
(lp77
F0.0
aF0.0
aF0.0
aF0.11088100585925531
aF0.0
aF0.0
aF0.0
aF0.0
aF0.0
aF0.0
aF0.0
aF0.0
aF0.0
aF0.0
aF248.3796959691711
aF8.20582674185308
aF0.0
as.