(dp0
S'Fitted_err_Top'
p1
(lp2
F0.3119890005184208
asS'Fitted_err_Multijets'
p3
(lp4
F0.3653608400712739
asS'MC_exp_err_Wjets'
p5
(lp6
F0.6112226236602902
asS'Fitted_events_GAMMAjets'
p7
(lp8
F0.0
asS'names'
p9
(lp10
S'SR_cuts'
p11
asS'TOTAL_MC_EXP_BKG_err'
p12
(lp13
F1.0145449613047535
asS'Fitted_err_GAMMAjets'
p14
(lp15
F0.0
asS'TOTAL_FITTED_bkg_events'
p16
(lp17
F6.056388122361353
asS'MC_exp_events_Wjets'
p18
(lp19
F1.7616140842437744
asS'Fitted_events_Top'
p20
(lp21
F0.5500000824164258
asS'Fitted_err_Diboson'
p22
(lp23
F0.35716921799365353
asS'MC_exp_events_Top'
p24
(lp25
F0.8663066625595093
asS'Fitted_events_Multijets'
p26
(lp27
F0.3658284607572665
asS'MC_exp_err_Top'
p28
(lp29
F0.3947374674472442
asS'Fitted_err_Zjets'
p30
(lp31
F0.4997353049067951
asS'MC_exp_events_Diboson'
p32
(lp33
F0.6419176459312439
asS'MC_exp_events_Zjets'
p34
(lp35
F3.513909101486206
asS'MC_exp_events_GAMMAjets'
p36
(lp37
F0.0
asS'TOTAL_FITTED_bkg_events_err'
p38
(lp39
F0.9943386165490037
asS'MC_exp_err_GAMMAjets'
p40
(lp41
F0.0
asS'nobs'
p42
(lp43
F10.0
asS'Fitted_err_Wjets'
p44
(lp45
F0.6165334760346783
asS'Fitted_events_Zjets'
p46
(lp47
F2.9181606117004626
asS'MC_exp_events_Multijets'
p48
(lp49
F0.22599999606609344
asS'MC_exp_err_Zjets'
p50
(lp51
F0.4600317264820705
asS'Fitted_events_Wjets'
p52
(lp53
F1.5807032508253032
asS'MC_exp_err_Diboson'
p54
(lp55
F0.35774652627797865
asS'TOTAL_MC_EXP_BKG_events'
p56
(lp57
F7.009747490286827
asS'Fitted_events_Diboson'
p58
(lp59
F0.6416957166618956
asS'MC_exp_err_Multijets'
p60
(lp61
F0.22524146910155876
as.